(lp0
(lp1
S'THE_SOCIAL_NETWORK'
p2
aS'1039_The_Queen'
p3
aS'2017_Bad_Santa'
p4
aS'2040_The_Ugly_Truth'
p5
aS'ZOOKEEPER'
p6
aS'0006_Clerks'
p7
aS'EASY_A'
p8
aS'0022_Reservoir_Dogs'
p9
aS'SOUL_SURFER'
p10
aS'LARRY_CROWNE'
p11
aS'MORNING_GLORY'
p12
aS'0008_Fargo'
p13
aS'0046_Chasing_Amy'
p14
aS'0002_As_Good_As_It_Gets'
p15
aS'LITTLE_FOCKERS'
p16
aS'THE_GUILT_TRIP'
p17
aS'2004_Juno'
p18
aS'0038_Psycho'
p19
aS'1023_Horrible_Bosses'
p20
aS'2041_This_is_40'
p21
aS'BLINDDATING'
p22
aS'BAD_TEACHER'
p23
aS'30_MINUTES_OR_LESS'
p24
aS'A_THOUSAND_WORDS'
p25
aS'1015_27_Dresses'
p26
aS'JACK_AND_JILL'
p27
aS'1058_The_Damned_united'
p28
aS'LAND_OF_THE_LOST'
p29
aS'40_YEAR_OLD_VIRGIN'
p30
aS'KNOCKED_UP'
p31
aS'0012_Get_Shorty'
p32
aS'1059_The_devil_wears_prada'
p33
aS'0043_Thelma_and_Luise'
p34
aa(lp35
S'1019_Confessions_Of_A_Shopaholic'
p36
aS'JUST_GO_WITH_IT'
p37
aS'GET_HIM_TO_THE_GREEK'
p38
aS'KATY_PERRY_PART_OF_ME'
p39
aS'THE_SITTER'
p40
aS'DINNER_FOR_SCHMUCKS'
p41
aS'YOUNG_ADULT'
p42
aS'0053_Rendezvous_mit_Joe_Black'
p43
aS'PARENTAL_GUIDANCE'
p44
aS'1055_Marley_and_me'
p45
aS'BRUNO'
p46
aa(lp47
S'THINK_LIKE_A_MAN'
p48
aS'GROWN_UPS'
p49
aS'2051_Harry_Potter_and_the_goblet_of_fire'
p50
aS'PERCY_JACKSON_LIGHTENING_THIEF'
p51
aS'0051_Men_in_black'
p52
aS'1040_The_Ugly_Truth'
p53
aS'2027_Les_Miserables'
p54
aS'1004_Juno'
p55
aS'NO_STRINGS_ATTACHED'
p56
aS'500DAYSOFSUMMER'
p57
aS'1045_An_education'
p58
aa.