(lp1
(S'allActions'
p2
(I40
I18
I42
I40
I35
I14
I67
I26
I53
I13
I15
I21
I28
I58
I53
I57
I12
I10
I21
I10
I21
I49
I31
I13
I4
I19
I25
I15
I29
I45
I31
I13
I10
I41
I60
I17
I21
I17
I14
I42
I22
I85
I53
I70
I27
I34
I78
I64
I63
I29
I7
I57
I76
I43
I85
I33
I38
I25
I91
I56
I22
I90
I42
I30
I88
I15
I24
I22
I69
I75
I3
I41
I58
I27
I55
I4
I72
I34
I58
I23
I39
I54
I12
I33
I44
I53
I62
I35
I83
I4
I56
I21
I41
I34
I17
I52
I14
I17
I31
I98
I109
I24
I53
I37
I47
I42
I34
I20
I79
I8
I19
I35
I67
I36
I33
I50
I57
I40
I66
I32
I138
I44
I49
I52
I59
I50
I36
I59
I34
I101
I42
I37
I27
I40
I54
I64
I11
I45
I50
I51
I55
I42
I51
I31
I60
I13
I30
I31
I40
I18
I35
I51
I3
I12
I16
I20
I7
I3
I6
I46
I13
I22
I17
I30
I22
I15
I39
I10
I14
I9
I54
I8
I6
I10
I26
I26
I52
I21
I23
I25
I14
I24
I14
I18
I12
I7
I7
I5
I15
I15
I28
I48
I16
I21
I5
I11
I9
I11
I8
I14
I17
I6
I27
I21
I12
I24
I23
I16
I19
I24
I24
I44
I23
I87
I25
I34
I14
I25
I53
I27
I32
I3
I30
I19
I24
I29
I19
I30
I96
I45
I27
I23
I28
I15
I46
I19
I16
I23
I9
I13
I15
I13
I15
I20
I18
I13
I51
I39
I17
I17
I17
I22
I23
I19
I41
I19
I55
I46
I32
I25
I20
I17
I19
I34
I23
I19
I15
I25
I24
I23
I35
I15
I50
I30
I27
I18
I30
I30
I8
I17
I34
I20
I26
I30
I25
I12
I15
I17
I19
I14
I18
I16
I12
I30
I28
I23
I20
I17
I31
I20
I26
I21
I43
I63
I60
I27
I25
I21
I43
I34
I26
I19
I25
I20
I32
I31
I47
I23
I23
I34
I31
I24
I27
I32
I18
I37
I29
I16
I19
I37
I29
I38
I25
I19
I48
I24
I47
I18
I35
I15
I44
I27
I28
I27
I27
I24
I23
I24
I44
I47
I14
I14
I15
I28
I27
I40
I32
I19
I25
I43
I24
I41
I31
I25
I20
I23
I20
I22
I29
I19
I30
I20
I28
I30
I20
I38
I54
I23
I46
I46
I47
I43
I47
I29
I52
I46
I24
I90
I46
I49
I59
I24
I17
I53
I47
I60
I68
I7
I65
I38
I77
I35
I36
I16
I53
I71
I30
I54
I20
I47
I21
I79
I47
I24
I36
I115
I21
I29
I24
I87
I18
I74
I60
I56
I35
I66
I43
I31
I40
I64
I89
I47
I63
I41
I43
I64
I104
I39
I64
I32
I31
I57
I36
I80
I16
I49
I59
I48
I36
I40
I55
I41
I49
I29
I11
I9
I100
I46
I20
I19
I19
I17
I29
I27
I58
I54
I25
I23
I66
I14
I26
I99
I46
I28
I42
I31
I29
I31
I23
I35
I13
I60
I40
I28
I27
I74
I51
I40
I48
I49
I14
I39
I32
I43
I40
I34
I53
I34
I37
I26
I44
I48
I36
I95
I20
I28
I38
I24
I30
I63
I44
I76
I56
I97
I43
I37
I38
I23
I24
I33
I32
I41
I29
I68
I41
I51
I30
I43
I10
I31
I38
I39
I23
I26
I12
I15
I15
I21
I15
I12
I15
I15
I20
I14
I24
I34
I17
I32
I14
I14
I23
I24
I46
I21
I20
I21
I21
I21
I26
I15
I12
I44
I23
I14
I44
I12
I15
I12
I46
I48
I66
I20
I25
I27
I18
I23
I29
I42
I44
I27
I32
I8
I33
I26
I23
I15
I22
I29
I43
I27
I23
I19
I11
I30
I28
I51
I29
I20
I38
I33
I10
I31
I42
I13
I16
I18
I12
I39
I14
I64
I34
I41
I31
I8
I27
I29
I33
I41
I67
I44
I22
I15
I15
I17
I19
I16
I24
I7
I21
I11
I19
I43
I43
I20
I46
I81
I45
I14
I12
I42
I58
I32
I41
I57
I16
I8
I40
I35
I57
I20
I24
I12
I37
I36
I36
I19
I19
I24
I18
I73
I38
I42
I49
I52
I77
I17
I79
I46
I26
I42
I99
I88
I41
I42
I75
I26
I90
I51
I17
I27
I11
I21
I27
I39
I18
I89
I13
I33
I12
I37
I13
I26
I17
I11
I12
I16
I20
I17
I18
I13
I16
I16
I20
I27
I18
I17
I27
I29
I18
I18
I53
I11
I24
I31
I34
I20
I8
I23
I30
I7
I19
I13
I17
I17
I20
I16
I25
I21
I30
I39
I48
I43
I34
I25
I31
I21
I38
I31
I30
I22
I55
I38
I33
I22
I33
I51
I28
I80
I20
I20
I31
I49
I28
I26
I61
I42
I28
I35
I27
I35
I24
I10
I25
I67
I31
I25
I31
I40
I27
I89
I31
I54
I41
I14
I38
I72
I68
I56
I39
I64
I31
I26
I49
I28
I61
I46
I21
I49
I38
I60
I100
I97
I62
I76
I44
I31
I35
I60
I29
I27
I54
I30
I35
I25
I35
I50
I52
I55
I28
I31
I21
I17
I17
I13
I45
I53
I45
I52
I48
I35
I64
I69
I17
I30
I9
I39
I31
I18
I26
I43
I21
I30
I39
I19
I49
I20
I19
I89
I14
I42
I72
I20
I3
I26
I37
I27
I12
I18
I41
I23
I56
I49
I46
I23
I38
I31
I42
I78
I26
I59
I33
I34
I36
I14
I25
I22
I5
I41
I11
I53
I38
I32
I34
I56
I23
I17
I30
I20
I74
I16
I85
I26
I18
I72
I16
I67
I32
I32
I27
I46
I27
I38
I19
I53
I64
I19
I46
I28
I62
I50
I35
I48
I28
I37
I47
I33
I45
I38
I123
I18
I21
I29
I55
I20
I36
I24
I24
I19
I46
I11
I28
I27
I104
I23
I22
I20
I23
I26
I38
I22
I43
I32
I11
I32
I12
I29
I19
I17
I57
I16
I16
I14
I41
I25
I47
I52
I18
I30
I27
I26
I14
I23
I18
I23
I22
I17
I13
I28
I56
I14
I15
I12
I28
I42
I126
I42
I35
I11
I77
I27
I40
I29
I51
I36
I64
I21
I36
I29
I14
I19
I20
I27
I25
I60
I44
I18
I11
I51
I9
I33
I30
I27
I166
I32
I91
I49
I18
I26
I14
I12
I24
I21
I16
I19
I36
I15
I14
I19
I20
I12
I15
I90
I54
I21
I15
I20
I21
I22
I91
I27
I24
I28
I23
I36
I30
I45
I43
I37
I29
I36
I72
I15
I14
I80
I34
I1
I37
I11
I20
I15
I24
I18
I45
I19
I36
I38
I25
I11
I25
I71
I40
I51
I34
I60
I18
I37
I88
I44
I31
I25
I49
I58
I50
I45
I55
I95
I32
I31
I179
I62
I15
I33
I32
I37
I25
I62
I32
I23
I68
I73
I68
I19
I80
I29
I43
I69
I32
I19
I41
I56
I54
I140
I1
I41
I13
I56
I39
I31
I64
I29
I45
I86
I21
I22
I28
I40
I16
I28
I81
I82
I42
I66
I52
I77
I48
I148
I108
I98
I40
I25
I130
I13
I34
I89
I30
I35
I49
I27
I153
I60
I97
I112
I35
I58
I113
I167
I125
I85
I42
I49
I39
I45
I138
I41
I12
I61
I41
I55
I28
I62
I76
I49
I53
I75
I23
I40
I25
I40
I22
I30
I39
I28
I101
I22
I90
I23
I95
I41
I64
I26
I41
I40
I89
I63
I31
I76
I69
I30
I102
I53
I49
I40
I124
I84
I44
I24
I62
I32
I133
I53
I99
I88
I44
I30
I38
I85
I30
I32
I116
I167
I44
I37
I65
I46
I60
I38
I65
I85
I23
I56
I63
I34
I35
I61
I61
I66
I71
I40
I122
I38
I73
I33
I75
I32
I39
I25
I51
I37
I75
I22
I18
I36
I32
I42
I108
I56
I67
I39
I12
I104
I34
I37
I111
I141
I60
I59
I30
I23
I14
I110
I58
I92
I28
I81
I43
I43
I18
I69
I66
I23
I75
I38
I43
I40
I56
I26
I24
I46
I41
I49
I60
I66
I92
I37
I77
I44
I75
I82
I30
I34
I21
I24
I46
I32
I42
I16
I37
I147
I68
I82
I78
I62
I116
I111
I35
I41
I63
I38
I37
I62
I35
I79
I47
I46
I13
I45
I82
I36
I24
I26
I116
I120
I108
I57
I60
I86
I11
I29
I28
I18
I23
I44
I71
I30
I68
I35
I95
I86
I47
I26
I103
I25
I101
I38
I121
I108
I64
I107
I59
I104
I81
I174
I79
I47
I78
I27
I39
I49
I80
I19
I51
I81
I59
I20
I39
I108
I80
I49
I69
I35
I48
I36
I22
I15
I26
I39
I47
I23
I31
I26
I35
I33
I180
I34
I19
I22
I35
I16
I27
I35
I79
I27
I54
I128
I26
I35
I20
I32
I19
I62
I49
I25
I19
I20
I10
I37
I23
I40
I15
I29
I68
I49
I42
I47
I26
I46
I18
I31
I17
I18
I43
I24
I46
I18
I31
I27
I30
I47
I59
I45
I32
I18
I25
I80
I27
I25
I19
I20
I32
I22
I22
I24
I11
I18
I48
I32
I36
I57
I15
I25
I29
I23
I20
I106
I25
ttp3
a(S'catch'
p4
(I40
I18
ttp5
a(S'climb'
p6
(ttp7
a(S'crouch'
p8
(I42
I40
I35
I14
I67
I26
I53
I13
I15
I21
I28
I58
I53
I57
I12
I10
I21
I10
I21
I49
I31
I13
I4
I19
I25
I15
I29
I45
I31
I13
I10
I41
I60
I17
I21
I17
I14
I42
I22
ttp9
a(S'crowd'
p10
(I85
I53
I70
I27
I34
I78
I64
I63
I29
I7
I57
I76
I43
I85
I33
I38
I25
I91
I56
I22
I90
I42
I30
I88
I15
I24
I22
I69
I75
I3
I41
I58
I27
I55
I4
I72
ttp11
a(S'drive'
p12
(I34
I58
I23
I39
I54
I12
I33
I44
I53
I62
I35
I83
I4
I56
I21
I41
I34
I17
I52
I14
I17
I31
I98
I109
I24
I53
I37
I47
I42
I34
I20
I79
I8
I19
I35
I67
I36
I33
I50
I57
I40
I66
I32
I138
I44
I49
I52
I59
I50
I36
I59
I34
I101
I42
I37
I27
I40
I54
I64
I11
I45
I50
I51
I55
I42
I51
I31
I60
I13
I30
I31
I40
I18
I35
I51
I3
ttp13
a(S'fire'
p14
(I12
I16
I20
I7
I3
I6
I46
I13
I22
I17
I30
I22
I15
I39
I10
I14
I9
I54
I8
I6
I10
I26
I26
I52
I21
I23
I25
I14
I24
I14
I18
I12
I7
I7
I5
I15
I15
I28
I48
I16
I21
I5
I11
I9
I11
I8
I14
I17
I6
I27
I21
I12
I24
I23
I16
ttp15
a(S'glance'
p16
(I19
I24
I24
I44
I23
I87
I25
I34
I14
I25
I53
I27
I32
I3
I30
I19
I24
I29
I19
I30
I96
I45
I27
I23
I28
I15
I46
I19
I16
I23
I9
I13
I15
I13
I15
I20
I18
I13
I51
I39
I17
I17
I17
I22
I23
I19
I41
I19
I55
I46
I32
I25
I20
I17
I19
I34
I23
I19
I15
I25
I24
I23
I35
I15
I50
I30
I27
I18
I30
I30
I8
I17
I34
I20
I26
I30
I25
I12
I15
I17
I19
I14
I18
I16
I12
I30
I28
I23
I20
I17
I31
I20
I26
I21
I43
I63
I60
I27
I25
I21
I43
I34
I26
I19
I25
I20
I32
I31
I47
I23
I23
I34
I31
I24
I27
I32
I18
I37
I29
I16
I19
I37
I29
I38
I25
I19
I48
I24
I47
I18
I35
I15
I44
I27
I28
I27
I27
I24
I23
I24
I44
I47
I14
I14
I15
I28
I27
I40
I32
I19
I25
I43
I24
I41
I31
I25
I20
I23
I20
I22
I29
I19
I30
I20
I28
I30
I20
I38
I54
I23
I46
I46
I47
I43
I47
I29
I52
I46
I24
I90
I46
I49
I59
I24
I17
I53
I47
I60
I68
I7
I65
I38
I77
I35
I36
I16
I53
I71
I30
I54
I20
I47
I21
I79
I47
I24
I36
I115
I21
I29
I24
I87
I18
I74
I60
I56
I35
I66
I43
I31
I40
I64
I89
I47
I63
I41
I43
I64
I104
I39
I64
I32
I31
I57
I36
I80
I16
I49
I59
I48
I36
I40
I55
I41
I49
I29
I11
I9
I100
I46
ttp17
a(S'hug'
p18
(I20
I19
I19
I17
I29
I27
I58
I54
I25
I23
I66
I14
I26
I99
I46
I28
I42
I31
I29
I31
I23
I35
I13
I60
I40
I28
I27
I74
I51
I40
I48
I49
I14
I39
I32
I43
I40
I34
I53
I34
I37
I26
I44
I48
I36
I95
I20
I28
I38
I24
I30
I63
I44
I76
I56
I97
I43
I37
I38
I23
I24
I33
I32
I41
I29
I68
I41
I51
I30
I43
ttp19
a(S'jump'
p20
(I10
I31
I38
I39
I23
I26
I12
I15
I15
I21
I15
I12
I15
I15
I20
I14
I24
I34
I17
I32
I14
I14
I23
I24
I46
I21
I20
I21
I21
I21
I26
I15
I12
I44
I23
I14
I44
I12
I15
I12
I46
I48
I66
I20
I25
I27
I18
ttp21
a(S'kiss'
p22
(I23
I29
I42
I44
I27
I32
I8
I33
I26
I23
I15
I22
I29
I43
I27
I23
I19
I11
I30
I28
I51
I29
I20
I38
I33
I10
I31
I42
I13
I16
I18
I12
I39
I14
I64
I34
I41
I31
I8
I27
I29
I33
I41
I67
I44
I22
I15
I15
I17
I19
I16
I24
I7
I21
I11
I19
I43
I43
I20
I46
I81
I45
I14
I12
I42
I58
I32
I41
I57
I16
I8
I40
I35
I57
I20
I24
I12
I37
I36
I36
I19
I19
ttp23
a(S'kneel'
p24
(I24
I18
I73
I38
I42
I49
I52
I77
I17
I79
I46
I26
I42
I99
I88
I41
I42
I75
I26
I90
I51
ttp25
a(S'leap'
p26
(I17
I27
I11
I21
I27
I39
I18
I89
I13
I33
I12
I37
I13
I26
I17
I11
I12
I16
I20
I17
I18
I13
I16
I16
I20
I27
I18
I17
I27
I29
I18
I18
I53
I11
I24
I31
I34
I20
I8
I23
I30
I7
I19
I13
ttp27
a(S'nod'
p28
(I17
I17
I20
I16
I25
I21
I30
I39
I48
I43
I34
I25
I31
I21
I38
I31
I30
I22
I55
I38
I33
I22
I33
I51
I28
I80
I20
I20
I31
I49
I28
I26
I61
I42
I28
I35
I27
I35
I24
I10
I25
I67
I31
I25
I31
I40
I27
I89
I31
I54
I41
I14
I38
I72
I68
I56
I39
I64
I31
I26
I49
I28
I61
I46
I21
I49
I38
I60
I100
I97
I62
I76
I44
I31
I35
I60
I29
I27
I54
I30
I35
I25
I35
I50
I52
I55
I28
I31
I21
I17
I17
I13
I45
I53
I45
I52
I48
I35
I64
I69
ttp29
a(S'point'
p30
(I17
I30
I9
I39
I31
I18
I26
I43
I21
I30
I39
I19
I49
I20
I19
I89
I14
I42
I72
I20
I3
I26
I37
I27
I12
I18
I41
I23
I56
I49
I46
I23
I38
I31
I42
I78
I26
I59
I33
I34
I36
I14
I25
I22
I5
I41
I11
I53
I38
I32
I34
I56
I23
I17
I30
I20
I74
I16
I85
I26
I18
I72
I16
I67
I32
I32
I27
I46
I27
I38
I19
I53
I64
I19
I46
I28
I62
I50
I35
I48
I28
I37
I47
I33
I45
I38
I123
I18
ttp31
a(S'push'
p32
(I21
I29
I55
I20
I36
I24
I24
I19
I46
I11
I28
I27
I104
I23
I22
I20
I23
I26
I38
I22
I43
I32
I11
I32
I12
I29
I19
I17
I57
I16
I16
I14
I41
I25
I47
I52
I18
I30
I27
I26
I14
I23
I18
I23
I22
I17
I13
I28
I56
I14
I15
I12
I28
I42
I126
I42
I35
I11
I77
I27
I40
I29
I51
I36
I64
I21
I36
I29
I14
I19
I20
I27
I25
I60
I44
I18
I11
I51
I9
I33
I30
I27
I166
I32
I91
I49
I18
I26
I14
I12
I24
I21
I16
I19
I36
I15
I14
I19
I20
I12
I15
I90
I54
I21
I15
I20
I21
I22
I91
I27
I24
I28
I23
ttp33
a(S'ride'
p34
(I36
I30
I45
I43
I37
I29
I36
I72
I15
I14
I80
I34
I1
I37
I11
I20
I15
I24
I18
I45
I19
I36
I38
I25
I11
I25
ttp35
a(S'run'
p36
(I71
I40
I51
I34
I60
I18
I37
I88
I44
I31
I25
I49
I58
I50
I45
I55
I95
I32
I31
I179
I62
I15
I33
I32
I37
I25
I62
I32
I23
I68
I73
I68
I19
I80
I29
I43
I69
I32
I19
I41
I56
I54
I140
I1
I41
I13
I56
I39
I31
I64
I29
I45
I86
I21
I22
I28
I40
I16
I28
I81
I82
I42
I66
I52
I77
I48
I148
I108
I98
I40
I25
I130
I13
I34
I89
I30
I35
I49
I27
I153
I60
I97
I112
I35
I58
I113
I167
I125
I85
I42
I49
I39
I45
I138
I41
I12
I61
I41
I55
I28
I62
I76
I49
I53
I75
I23
I40
I25
I40
I22
I30
I39
I28
I101
I22
I90
I23
I95
I41
I64
I26
I41
I40
I89
I63
I31
I76
I69
I30
I102
I53
I49
I40
I124
I84
I44
I24
I62
I32
I133
I53
I99
I88
I44
I30
I38
I85
I30
I32
I116
I167
I44
I37
I65
I46
I60
I38
I65
I85
I23
I56
I63
I34
I35
I61
I61
I66
I71
I40
I122
I38
I73
I33
I75
I32
I39
I25
I51
I37
I75
I22
I18
I36
I32
I42
I108
I56
I67
I39
I12
I104
I34
I37
I111
I141
I60
I59
I30
I23
I14
I110
I58
I92
I28
I81
I43
I43
I18
I69
I66
I23
I75
I38
I43
I40
I56
I26
I24
I46
I41
I49
I60
I66
I92
I37
I77
I44
I75
I82
I30
I34
I21
I24
I46
I32
I42
I16
I37
I147
I68
I82
I78
I62
I116
I111
I35
I41
I63
I38
I37
I62
I35
I79
I47
I46
I13
I45
I82
I36
I24
I26
I116
I120
I108
I57
I60
I86
I11
I29
I28
I18
I23
I44
I71
ttp37
a(S'swim'
p38
(I30
I68
I35
I95
I86
I47
I26
I103
I25
I101
I38
I121
I108
I64
I107
I59
I104
I81
I174
I79
I47
I78
I27
I39
I49
ttp39
a(S'walk'
p40
(I80
I19
I51
I81
I59
I20
I39
I108
I80
I49
I69
I35
I48
I36
ttp41
a(S'wave'
p42
(I22
I15
I26
I39
I47
I23
I31
I26
I35
I33
I180
I34
I19
I22
I35
I16
I27
I35
I79
I27
I54
I128
I26
I35
I20
I32
I19
I62
I49
I25
I19
I20
I10
I37
I23
I40
I15
I29
I68
I49
I42
I47
I26
I46
I18
I31
I17
I18
I43
I24
I46
I18
I31
I27
I30
I47
I59
I45
I32
I18
I25
I80
I27
I25
I19
I20
I32
I22
I22
I24
I11
I18
I48
I32
I36
I57
I15
I25
I29
I23
I20
I106
I25
tp43
tp44
a.