(lp1
(S'allActions'
(lp2
(I0
I0
I0
tp3
a(I0
I0
I0
tp4
a(I0
I0
I0
tp5
a(I118
I158
I40
tp6
a(I132
I150
I18
tp7
a(I56
I56
I0
tp8
a(I0
I0
I0
tp9
a(I0
I0
I0
tp10
a(I0
I0
I0
tp11
a(I0
I0
I0
tp12
a(I0
I0
I0
tp13
a(I0
I0
I0
tp14
a(I0
I0
I0
tp15
a(I0
I0
I0
tp16
a(I0
I0
I0
tp17
a(I0
I0
I0
tp18
a(I0
I0
I0
tp19
a(I0
I0
I0
tp20
a(I0
I0
I0
tp21
a(I0
I0
I0
tp22
a(I0
I0
I0
tp23
a(I0
I0
I0
tp24
a(I0
I0
I0
tp25
a(I0
I0
I0
tp26
a(I0
I0
I0
tp27
a(I0
I0
I0
tp28
a(I0
I0
I0
tp29
a(I0
I0
I0
tp30
a(I0
I0
I0
tp31
a(I0
I0
I0
tp32
a(I0
I0
I0
tp33
a(I0
I0
I0
tp34
a(I0
I0
I0
tp35
a(I0
I0
I0
tp36
a(I0
I0
I0
tp37
a(I0
I0
I0
tp38
a(I0
I0
I0
tp39
a(I0
I0
I0
tp40
a(I0
I0
I0
tp41
a(I0
I0
I0
tp42
a(I0
I0
I0
tp43
a(I0
I0
I0
tp44
a(I0
I0
I0
tp45
a(I0
I0
I0
tp46
a(I0
I0
I0
tp47
a(I0
I0
I0
tp48
a(I0
I0
I0
tp49
a(I0
I0
I0
tp50
a(I0
I0
I0
tp51
a(I0
I0
I0
tp52
a(I0
I0
I0
tp53
a(I0
I0
I0
tp54
a(I0
I0
I0
tp55
a(I0
I0
I0
tp56
a(I0
I0
I0
tp57
a(I0
I0
I0
tp58
a(I0
I0
I0
tp59
a(I0
I0
I0
tp60
a(I0
I0
I0
tp61
a(I0
I0
I0
tp62
a(I0
I0
I0
tp63
a(I0
I0
I0
tp64
a(I0
I0
I0
tp65
a(I0
I0
I0
tp66
a(I0
I0
I0
tp67
a(I0
I0
I0
tp68
a(I0
I0
I0
tp69
a(I0
I0
I0
tp70
a(I0
I0
I0
tp71
a(I0
I0
I0
tp72
a(I0
I0
I0
tp73
a(I0
I0
I0
tp74
a(I0
I0
I0
tp75
a(I0
I0
I0
tp76
a(I0
I0
I0
tp77
a(I0
I0
I0
tp78
a(I0
I0
I0
tp79
a(I0
I0
I0
tp80
a(I0
I0
I0
tp81
a(I0
I0
I0
tp82
a(I0
I0
I0
tp83
a(I0
I0
I0
tp84
a(I0
I0
I0
tp85
a(I0
I0
I0
tp86
a(I0
I0
I0
tp87
a(I0
I0
I0
tp88
a(I0
I0
I0
tp89
a(I0
I0
I0
tp90
a(I0
I0
I0
tp91
a(I0
I0
I0
tp92
a(I0
I0
I0
tp93
a(I0
I0
I0
tp94
a(I0
I0
I0
tp95
a(I0
I0
I0
tp96
a(I0
I0
I0
tp97
a(I0
I0
I0
tp98
a(I0
I0
I0
tp99
a(I0
I0
I0
tp100
a(I0
I0
I0
tp101
a(I0
I0
I0
tp102
a(I0
I0
I0
tp103
a(I0
I0
I0
tp104
a(I0
I0
I0
tp105
a(I0
I0
I0
tp106
a(I0
I0
I0
tp107
a(I0
I0
I0
tp108
a(I0
I0
I0
tp109
a(I0
I0
I0
tp110
a(I0
I0
I0
tp111
a(I0
I0
I0
tp112
a(I0
I0
I0
tp113
a(I0
I0
I0
tp114
a(I0
I0
I0
tp115
a(I0
I0
I0
tp116
a(I0
I0
I0
tp117
a(I0
I0
I0
tp118
a(I0
I0
I0
tp119
a(I0
I0
I0
tp120
a(I0
I0
I0
tp121
a(I0
I0
I0
tp122
a(I0
I0
I0
tp123
a(I0
I0
I0
tp124
a(I0
I0
I0
tp125
a(I0
I0
I0
tp126
a(I0
I0
I0
tp127
a(I0
I0
I0
tp128
a(I0
I0
I0
tp129
a(I0
I0
I0
tp130
a(I0
I0
I0
tp131
a(I0
I0
I0
tp132
a(I0
I0
I0
tp133
a(I0
I0
I0
tp134
a(I0
I0
I0
tp135
a(I0
I0
I0
tp136
a(I0
I0
I0
tp137
a(I0
I0
I0
tp138
a(I0
I0
I0
tp139
a(I0
I0
I0
tp140
a(I0
I0
I0
tp141
a(I0
I0
I0
tp142
a(I0
I0
I0
tp143
a(I0
I0
I0
tp144
a(I0
I0
I0
tp145
a(I0
I0
I0
tp146
a(I0
I0
I0
tp147
a(I0
I0
I0
tp148
a(I0
I0
I0
tp149
a(I0
I0
I0
tp150
a(I0
I0
I0
tp151
a(I0
I0
I0
tp152
a(I0
I0
I0
tp153
a(I0
I0
I0
tp154
a(I0
I0
I0
tp155
a(I0
I0
I0
tp156
a(I0
I0
I0
tp157
a(I0
I0
I0
tp158
a(I0
I0
I0
tp159
a(I0
I0
I0
tp160
a(I0
I0
I0
tp161
a(I0
I0
I0
tp162
a(I0
I0
I0
tp163
a(I0
I0
I0
tp164
a(I0
I0
I0
tp165
a(I0
I0
I0
tp166
a(I0
I0
I0
tp167
a(I0
I0
I0
tp168
a(I0
I0
I0
tp169
a(I0
I0
I0
tp170
a(I0
I0
I0
tp171
a(I0
I0
I0
tp172
a(I0
I0
I0
tp173
a(I0
I0
I0
tp174
a(I0
I0
I0
tp175
a(I0
I0
I0
tp176
a(I0
I0
I0
tp177
a(I0
I0
I0
tp178
a(I0
I0
I0
tp179
a(I0
I0
I0
tp180
a(I0
I0
I0
tp181
a(I0
I0
I0
tp182
a(I0
I0
I0
tp183
a(I0
I0
I0
tp184
a(I0
I0
I0
tp185
a(I0
I0
I0
tp186
a(I0
I0
I0
tp187
a(I0
I0
I0
tp188
a(I0
I0
I0
tp189
a(I0
I0
I0
tp190
a(I0
I0
I0
tp191
a(I0
I0
I0
tp192
a(I0
I0
I0
tp193
a(I0
I0
I0
tp194
a(I0
I0
I0
tp195
a(I0
I0
I0
tp196
a(I0
I0
I0
tp197
a(I0
I0
I0
tp198
a(I0
I0
I0
tp199
a(I0
I0
I0
tp200
a(I0
I0
I0
tp201
a(I0
I0
I0
tp202
a(I0
I0
I0
tp203
a(I0
I0
I0
tp204
a(I0
I0
I0
tp205
a(I0
I0
I0
tp206
a(I0
I0
I0
tp207
a(I0
I0
I0
tp208
a(I0
I0
I0
tp209
a(I0
I0
I0
tp210
a(I0
I0
I0
tp211
a(I0
I0
I0
tp212
a(I0
I0
I0
tp213
a(I0
I0
I0
tp214
a(I0
I0
I0
tp215
a(I0
I0
I0
tp216
a(I0
I0
I0
tp217
a(I0
I0
I0
tp218
a(I0
I0
I0
tp219
a(I0
I0
I0
tp220
a(I0
I0
I0
tp221
a(I0
I0
I0
tp222
a(I0
I0
I0
tp223
a(I0
I0
I0
tp224
a(I0
I0
I0
tp225
a(I0
I0
I0
tp226
a(I0
I0
I0
tp227
a(I0
I0
I0
tp228
a(I0
I0
I0
tp229
a(I0
I0
I0
tp230
a(I0
I0
I0
tp231
a(I0
I0
I0
tp232
a(I0
I0
I0
tp233
a(I0
I0
I0
tp234
a(I0
I0
I0
tp235
a(I0
I0
I0
tp236
a(I0
I0
I0
tp237
a(I0
I0
I0
tp238
a(I0
I0
I0
tp239
a(I0
I0
I0
tp240
a(I0
I0
I0
tp241
a(I0
I0
I0
tp242
a(I0
I0
I0
tp243
a(I0
I0
I0
tp244
a(I0
I0
I0
tp245
a(I0
I0
I0
tp246
a(I0
I0
I0
tp247
a(I0
I0
I0
tp248
a(I0
I0
I0
tp249
a(I0
I0
I0
tp250
a(I0
I0
I0
tp251
a(I0
I0
I0
tp252
a(I0
I0
I0
tp253
a(I0
I0
I0
tp254
a(I0
I0
I0
tp255
a(I0
I0
I0
tp256
a(I0
I0
I0
tp257
a(I0
I0
I0
tp258
a(I0
I0
I0
tp259
a(I0
I0
I0
tp260
a(I0
I0
I0
tp261
a(I33
I75
I42
tp262
a(I65
I105
I40
tp263
a(I85
I120
I35
tp264
a(I82
I96
I14
tp265
a(I102
I169
I67
tp266
a(I131
I157
I26
tp267
a(I359
I359
I0
tp268
a(I16
I69
I53
tp269
a(I0
I0
I0
tp270
a(I0
I0
I0
tp271
a(I114
I127
I13
tp272
a(I0
I0
I0
tp273
a(I0
I0
I0
tp274
a(I282
I297
I15
tp275
a(I255
I276
I21
tp276
a(I5
I33
I28
tp277
a(I0
I0
I0
tp278
a(I0
I0
I0
tp279
a(I102
I160
I58
tp280
a(I0
I0
I0
tp281
a(I131
I184
I53
tp282
a(I0
I0
I0
tp283
a(I16
I73
I57
tp284
a(I0
I0
I0
tp285
a(I0
I0
I0
tp286
a(I0
I0
I0
tp287
a(I80
I92
I12
tp288
a(I268
I278
I10
tp289
a(I18
I39
I21
tp290
a(I36
I46
I10
tp291
a(I0
I0
I0
tp292
a(I0
I0
I0
tp293
a(I0
I0
I0
tp294
a(I0
I0
I0
tp295
a(I0
I0
I0
tp296
a(I0
I0
I0
tp297
a(I43
I64
I21
tp298
a(I0
I0
I0
tp299
a(I96
I145
I49
tp300
a(I94
I125
I31
tp301
a(I0
I0
I0
tp302
a(I0
I0
I0
tp303
a(I142
I155
I13
tp304
a(I0
I0
I0
tp305
a(I96
I100
I4
tp306
a(I0
I0
I0
tp307
a(I0
I0
I0
tp308
a(I0
I0
I0
tp309
a(I153
I172
I19
tp310
a(I121
I146
I25
tp311
a(I0
I0
I0
tp312
a(I0
I0
I0
tp313
a(I63
I78
I15
tp314
a(I22
I51
I29
tp315
a(I231
I276
I45
tp316
a(I88
I119
I31
tp317
a(I0
I0
I0
tp318
a(I227
I240
I13
tp319
a(I133
I143
I10
tp320
a(I22
I63
I41
tp321
a(I0
I0
I0
tp322
a(I26
I86
I60
tp323
a(I130
I147
I17
tp324
a(I56
I77
I21
tp325
a(I47
I64
I17
tp326
a(I0
I0
I0
tp327
a(I0
I0
I0
tp328
a(I66
I80
I14
tp329
a(I44
I86
I42
tp330
a(I53
I75
I22
tp331
a(I0
I0
I0
tp332
a(I64
I149
I85
tp333
a(I0
I0
I0
tp334
a(I61
I114
I53
tp335
a(I197
I267
I70
tp336
a(I111
I138
I27
tp337
a(I37
I37
I0
tp338
a(I58
I92
I34
tp339
a(I32
I110
I78
tp340
a(I0
I0
I0
tp341
a(I30
I94
I64
tp342
a(I36
I99
I63
tp343
a(I0
I0
I0
tp344
a(I85
I114
I29
tp345
a(I0
I0
I0
tp346
a(I0
I0
I0
tp347
a(I124
I131
I7
tp348
a(I38
I95
I57
tp349
a(I137
I213
I76
tp350
a(I52
I95
I43
tp351
a(I58
I143
I85
tp352
a(I50
I83
I33
tp353
a(I78
I116
I38
tp354
a(I157
I182
I25
tp355
a(I0
I0
I0
tp356
a(I55
I146
I91
tp357
a(I156
I212
I56
tp358
a(I198
I220
I22
tp359
a(I163
I253
I90
tp360
a(I72
I114
I42
tp361
a(I0
I0
I0
tp362
a(I17
I47
I30
tp363
a(I28
I116
I88
tp364
a(I0
I0
I0
tp365
a(I119
I134
I15
tp366
a(I62
I86
I24
tp367
a(I0
I0
I0
tp368
a(I0
I0
I0
tp369
a(I97
I119
I22
tp370
a(I0
I0
I0
tp371
a(I0
I0
I0
tp372
a(I0
I0
I0
tp373
a(I0
I0
I0
tp374
a(I40
I109
I69
tp375
a(I38
I113
I75
tp376
a(I119
I122
I3
tp377
a(I0
I0
I0
tp378
a(I151
I192
I41
tp379
a(I216
I216
I0
tp380
a(I158
I216
I58
tp381
a(I15
I42
I27
tp382
a(I61
I116
I55
tp383
a(I147
I151
I4
tp384
a(I51
I123
I72
tp385
a(I28
I62
I34
tp386
a(I211
I269
I58
tp387
a(I0
I0
I0
tp388
a(I46
I69
I23
tp389
a(I40
I79
I39
tp390
a(I0
I0
I0
tp391
a(I0
I0
I0
tp392
a(I23
I77
I54
tp393
a(I37
I49
I12
tp394
a(I23
I56
I33
tp395
a(I30
I74
I44
tp396
a(I0
I0
I0
tp397
a(I124
I177
I53
tp398
a(I37
I99
I62
tp399
a(I0
I0
I0
tp400
a(I47
I82
I35
tp401
a(I31
I114
I83
tp402
a(I0
I0
I0
tp403
a(I240
I244
I4
tp404
a(I46
I102
I56
tp405
a(I0
I0
I0
tp406
a(I0
I0
I0
tp407
a(I25
I46
I21
tp408
a(I116
I157
I41
tp409
a(I37
I71
I34
tp410
a(I19
I36
I17
tp411
a(I48
I100
I52
tp412
a(I0
I0
I0
tp413
a(I0
I0
I0
tp414
a(I0
I0
I0
tp415
a(I115
I129
I14
tp416
a(I45
I62
I17
tp417
a(I24
I55
I31
tp418
a(I0
I0
I0
tp419
a(I31
I129
I98
tp420
a(I0
I0
I0
tp421
a(I33
I142
I109
tp422
a(I0
I0
I0
tp423
a(I59
I83
I24
tp424
a(I0
I0
I0
tp425
a(I62
I115
I53
tp426
a(I0
I0
I0
tp427
a(I29
I66
I37
tp428
a(I29
I76
I47
tp429
a(I24
I66
I42
tp430
a(I0
I0
I0
tp431
a(I85
I119
I34
tp432
a(I151
I171
I20
tp433
a(I89
I168
I79
tp434
a(I0
I0
I0
tp435
a(I0
I0
I0
tp436
a(I176
I184
I8
tp437
a(I37
I56
I19
tp438
a(I26
I61
I35
tp439
a(I257
I324
I67
tp440
a(I38
I38
I0
tp441
a(I21
I57
I36
tp442
a(I0
I0
I0
tp443
a(I60
I93
I33
tp444
a(I0
I0
I0
tp445
a(I0
I0
I0
tp446
a(I28
I78
I50
tp447
a(I0
I0
I0
tp448
a(I91
I148
I57
tp449
a(I37
I77
I40
tp450
a(I18
I84
I66
tp451
a(I18
I18
I0
tp452
a(I69
I101
I32
tp453
a(I0
I0
I0
tp454
a(I115
I253
I138
tp455
a(I205
I205
I0
tp456
a(I39
I39
I0
tp457
a(I0
I0
I0
tp458
a(I95
I139
I44
tp459
a(I60
I109
I49
tp460
a(I25
I77
I52
tp461
a(I0
I0
I0
tp462
a(I0
I0
I0
tp463
a(I35
I94
I59
tp464
a(I25
I75
I50
tp465
a(I50
I86
I36
tp466
a(I18
I77
I59
tp467
a(I57
I57
I0
tp468
a(I91
I125
I34
tp469
a(I0
I0
I0
tp470
a(I0
I0
I0
tp471
a(I24
I125
I101
tp472
a(I157
I199
I42
tp473
a(I24
I61
I37
tp474
a(I0
I0
I0
tp475
a(I33
I60
I27
tp476
a(I0
I0
I0
tp477
a(I0
I0
I0
tp478
a(I0
I0
I0
tp479
a(I21
I61
I40
tp480
a(I0
I0
I0
tp481
a(I36
I90
I54
tp482
a(I114
I114
I0
tp483
a(I0
I0
I0
tp484
a(I0
I0
I0
tp485
a(I35
I99
I64
tp486
a(I85
I96
I11
tp487
a(I0
I0
I0
tp488
a(I20
I65
I45
tp489
a(I0
I0
I0
tp490
a(I43
I93
I50
tp491
a(I0
I0
I0
tp492
a(I0
I0
I0
tp493
a(I31
I82
I51
tp494
a(I30
I85
I55
tp495
a(I52
I52
I0
tp496
a(I0
I0
I0
tp497
a(I22
I64
I42
tp498
a(I0
I0
I0
tp499
a(I20
I71
I51
tp500
a(I33
I64
I31
tp501
a(I0
I0
I0
tp502
a(I40
I100
I60
tp503
a(I0
I0
I0
tp504
a(I4
I4
I0
tp505
a(I156
I156
I0
tp506
a(I0
I0
I0
tp507
a(I21
I34
I13
tp508
a(I39
I69
I30
tp509
a(I34
I65
I31
tp510
a(I47
I47
I0
tp511
a(I0
I0
I0
tp512
a(I0
I0
I0
tp513
a(I0
I0
I0
tp514
a(I69
I109
I40
tp515
a(I0
I0
I0
tp516
a(I105
I123
I18
tp517
a(I82
I117
I35
tp518
a(I24
I75
I51
tp519
a(I97
I100
I3
tp520
a(I74
I86
I12
tp521
a(I80
I96
I16
tp522
a(I0
I0
I0
tp523
a(I39
I59
I20
tp524
a(I195
I202
I7
tp525
a(I9
I12
I3
tp526
a(I6
I12
I6
tp527
a(I0
I0
I0
tp528
a(I0
I0
I0
tp529
a(I0
I0
I0
tp530
a(I11
I57
I46
tp531
a(I122
I135
I13
tp532
a(I50
I72
I22
tp533
a(I112
I129
I17
tp534
a(I169
I199
I30
tp535
a(I56
I56
I0
tp536
a(I101
I123
I22
tp537
a(I134
I149
I15
tp538
a(I79
I79
I0
tp539
a(I0
I0
I0
tp540
a(I0
I0
I0
tp541
a(I0
I0
I0
tp542
a(I0
I0
I0
tp543
a(I0
I0
I0
tp544
a(I0
I0
I0
tp545
a(I0
I0
I0
tp546
a(I0
I0
I0
tp547
a(I0
I0
I0
tp548
a(I0
I0
I0
tp549
a(I0
I0
I0
tp550
a(I0
I0
I0
tp551
a(I46
I85
I39
tp552
a(I0
I0
I0
tp553
a(I40
I50
I10
tp554
a(I114
I128
I14
tp555
a(I93
I93
I0
tp556
a(I0
I0
I0
tp557
a(I31
I40
I9
tp558
a(I20
I74
I54
tp559
a(I0
I0
I0
tp560
a(I161
I169
I8
tp561
a(I0
I0
I0
tp562
a(I138
I138
I0
tp563
a(I207
I207
I0
tp564
a(I0
I0
I0
tp565
a(I0
I0
I0
tp566
a(I0
I0
I0
tp567
a(I340
I346
I6
tp568
a(I79
I89
I10
tp569
a(I128
I154
I26
tp570
a(I0
I0
I0
tp571
a(I10
I36
I26
tp572
a(I78
I78
I0
tp573
a(I0
I0
I0
tp574
a(I0
I0
I0
tp575
a(I140
I192
I52
tp576
a(I46
I67
I21
tp577
a(I255
I278
I23
tp578
a(I61
I86
I25
tp579
a(I20
I34
I14
tp580
a(I0
I0
I0
tp581
a(I0
I0
I0
tp582
a(I1
I1
I0
tp583
a(I62
I86
I24
tp584
a(I22
I22
I0
tp585
a(I0
I0
I0
tp586
a(I94
I108
I14
tp587
a(I102
I120
I18
tp588
a(I59
I71
I12
tp589
a(I42
I49
I7
tp590
a(I0
I0
I0
tp591
a(I0
I0
I0
tp592
a(I9
I16
I7
tp593
a(I24
I29
I5
tp594
a(I94
I109
I15
tp595
a(I78
I93
I15
tp596
a(I130
I158
I28
tp597
a(I125
I173
I48
tp598
a(I113
I129
I16
tp599
a(I149
I170
I21
tp600
a(I190
I195
I5
tp601
a(I57
I68
I11
tp602
a(I130
I139
I9
tp603
a(I47
I58
I11
tp604
a(I0
I0
I0
tp605
a(I18
I26
I8
tp606
a(I43
I57
I14
tp607
a(I55
I72
I17
tp608
a(I1
I7
I6
tp609
a(I69
I96
I27
tp610
a(I140
I161
I21
tp611
a(I18
I30
I12
tp612
a(I38
I62
I24
tp613
a(I108
I131
I23
tp614
a(I53
I69
I16
tp615
a(I0
I0
I0
tp616
a(I105
I124
I19
tp617
a(I24
I48
I24
tp618
a(I47
I71
I24
tp619
a(I1
I45
I44
tp620
a(I1
I24
I23
tp621
a(I0
I0
I0
tp622
a(I5
I92
I87
tp623
a(I96
I121
I25
tp624
a(I26
I60
I34
tp625
a(I86
I100
I14
tp626
a(I43
I68
I25
tp627
a(I45
I98
I53
tp628
a(I0
I0
I0
tp629
a(I120
I147
I27
tp630
a(I195
I227
I32
tp631
a(I0
I0
I0
tp632
a(I0
I0
I0
tp633
a(I0
I0
I0
tp634
a(I5
I8
I3
tp635
a(I0
I0
I0
tp636
a(I0
I0
I0
tp637
a(I4
I34
I30
tp638
a(I0
I0
I0
tp639
a(I29
I48
I19
tp640
a(I0
I0
I0
tp641
a(I0
I0
I0
tp642
a(I184
I208
I24
tp643
a(I0
I0
I0
tp644
a(I0
I0
I0
tp645
a(I8
I37
I29
tp646
a(I103
I122
I19
tp647
a(I153
I183
I30
tp648
a(I180
I276
I96
tp649
a(I0
I0
I0
tp650
a(I0
I0
I0
tp651
a(I200
I245
I45
tp652
a(I57
I84
I27
tp653
a(I18
I41
I23
tp654
a(I159
I187
I28
tp655
a(I131
I146
I15
tp656
a(I70
I116
I46
tp657
a(I48
I67
I19
tp658
a(I4
I20
I16
tp659
a(I63
I86
I23
tp660
a(I0
I0
I0
tp661
a(I126
I135
I9
tp662
a(I118
I131
I13
tp663
a(I11
I26
I15
tp664
a(I61
I74
I13
tp665
a(I0
I0
I0
tp666
a(I59
I74
I15
tp667
a(I25
I45
I20
tp668
a(I43
I61
I18
tp669
a(I27
I40
I13
tp670
a(I7
I58
I51
tp671
a(I54
I93
I39
tp672
a(I89
I106
I17
tp673
a(I65
I82
I17
tp674
a(I9
I26
I17
tp675
a(I6
I28
I22
tp676
a(I35
I58
I23
tp677
a(I33
I52
I19
tp678
a(I5
I46
I41
tp679
a(I11
I30
I19
tp680
a(I0
I0
I0
tp681
a(I2
I57
I55
tp682
a(I15
I15
I0
tp683
a(I42
I88
I46
tp684
a(I27
I59
I32
tp685
a(I38
I63
I25
tp686
a(I0
I0
I0
tp687
a(I263
I283
I20
tp688
a(I56
I73
I17
tp689
a(I149
I149
I0
tp690
a(I0
I0
I0
tp691
a(I0
I0
I0
tp692
a(I3
I22
I19
tp693
a(I6
I40
I34
tp694
a(I6
I29
I23
tp695
a(I46
I65
I19
tp696
a(I46
I61
I15
tp697
a(I30
I55
I25
tp698
a(I58
I82
I24
tp699
a(I15
I38
I23
tp700
a(I160
I195
I35
tp701
a(I59
I74
I15
tp702
a(I36
I86
I50
tp703
a(I26
I56
I30
tp704
a(I54
I81
I27
tp705
a(I101
I119
I18
tp706
a(I56
I86
I30
tp707
a(I27
I57
I30
tp708
a(I137
I145
I8
tp709
a(I0
I0
I0
tp710
a(I1
I18
I17
tp711
a(I31
I65
I34
tp712
a(I99
I119
I20
tp713
a(I0
I0
I0
tp714
a(I64
I90
I26
tp715
a(I104
I134
I30
tp716
a(I0
I0
I0
tp717
a(I70
I95
I25
tp718
a(I21
I33
I12
tp719
a(I94
I109
I15
tp720
a(I50
I67
I17
tp721
a(I74
I93
I19
tp722
a(I1
I15
I14
tp723
a(I54
I72
I18
tp724
a(I11
I27
I16
tp725
a(I0
I0
I0
tp726
a(I27
I39
I12
tp727
a(I49
I79
I30
tp728
a(I27
I55
I28
tp729
a(I114
I137
I23
tp730
a(I0
I0
I0
tp731
a(I0
I0
I0
tp732
a(I73
I93
I20
tp733
a(I83
I100
I17
tp734
a(I150
I181
I31
tp735
a(I131
I151
I20
tp736
a(I10
I36
I26
tp737
a(I7
I28
I21
tp738
a(I49
I92
I43
tp739
a(I28
I91
I63
tp740
a(I66
I126
I60
tp741
a(I44
I71
I27
tp742
a(I0
I0
I0
tp743
a(I34
I59
I25
tp744
a(I149
I170
I21
tp745
a(I74
I117
I43
tp746
a(I59
I93
I34
tp747
a(I138
I164
I26
tp748
a(I72
I91
I19
tp749
a(I9
I34
I25
tp750
a(I137
I157
I20
tp751
a(I61
I93
I32
tp752
a(I123
I154
I31
tp753
a(I23
I70
I47
tp754
a(I26
I49
I23
tp755
a(I1
I24
I23
tp756
a(I0
I0
I0
tp757
a(I1
I35
I34
tp758
a(I7
I38
I31
tp759
a(I21
I45
I24
tp760
a(I0
I0
I0
tp761
a(I105
I132
I27
tp762
a(I83
I115
I32
tp763
a(I19
I37
I18
tp764
a(I67
I104
I37
tp765
a(I11
I40
I29
tp766
a(I107
I123
I16
tp767
a(I67
I86
I19
tp768
a(I46
I83
I37
tp769
a(I28
I57
I29
tp770
a(I12
I50
I38
tp771
a(I3
I28
I25
tp772
a(I126
I145
I19
tp773
a(I2
I50
I48
tp774
a(I33
I57
I24
tp775
a(I9
I56
I47
tp776
a(I133
I151
I18
tp777
a(I44
I79
I35
tp778
a(I0
I0
I0
tp779
a(I0
I0
I0
tp780
a(I47
I62
I15
tp781
a(I11
I11
I0
tp782
a(I1
I1
I0
tp783
a(I1
I45
I44
tp784
a(I0
I0
I0
tp785
a(I7
I34
I27
tp786
a(I6
I34
I28
tp787
a(I1
I28
I27
tp788
a(I116
I143
I27
tp789
a(I0
I0
I0
tp790
a(I0
I0
I0
tp791
a(I67
I91
I24
tp792
a(I1
I24
I23
tp793
a(I0
I0
I0
tp794
a(I9
I33
I24
tp795
a(I0
I0
I0
tp796
a(I70
I114
I44
tp797
a(I0
I0
I0
tp798
a(I82
I129
I47
tp799
a(I100
I114
I14
tp800
a(I107
I121
I14
tp801
a(I389
I404
I15
tp802
a(I0
I0
I0
tp803
a(I0
I0
I0
tp804
a(I0
I0
I0
tp805
a(I68
I96
I28
tp806
a(I4
I31
I27
tp807
a(I6
I46
I40
tp808
a(I32
I64
I32
tp809
a(I0
I0
I0
tp810
a(I103
I122
I19
tp811
a(I0
I0
I0
tp812
a(I4
I29
I25
tp813
a(I54
I97
I43
tp814
a(I22
I46
I24
tp815
a(I38
I79
I41
tp816
a(I0
I0
I0
tp817
a(I66
I97
I31
tp818
a(I24
I49
I25
tp819
a(I0
I0
I0
tp820
a(I0
I0
I0
tp821
a(I0
I0
I0
tp822
a(I43
I63
I20
tp823
a(I0
I0
I0
tp824
a(I0
I0
I0
tp825
a(I23
I46
I23
tp826
a(I65
I85
I20
tp827
a(I97
I119
I22
tp828
a(I0
I0
I0
tp829
a(I0
I0
I0
tp830
a(I10
I39
I29
tp831
a(I11
I30
I19
tp832
a(I66
I96
I30
tp833
a(I223
I243
I20
tp834
a(I99
I99
I0
tp835
a(I84
I112
I28
tp836
a(I70
I100
I30
tp837
a(I0
I0
I0
tp838
a(I57
I77
I20
tp839
a(I5
I5
I0
tp840
a(I37
I75
I38
tp841
a(I16
I70
I54
tp842
a(I54
I77
I23
tp843
a(I45
I91
I46
tp844
a(I0
I0
I0
tp845
a(I41
I87
I46
tp846
a(I3
I3
I0
tp847
a(I62
I62
I0
tp848
a(I149
I196
I47
tp849
a(I54
I97
I43
tp850
a(I132
I179
I47
tp851
a(I0
I0
I0
tp852
a(I0
I0
I0
tp853
a(I12
I41
I29
tp854
a(I12
I64
I52
tp855
a(I46
I92
I46
tp856
a(I0
I0
I0
tp857
a(I11
I35
I24
tp858
a(I34
I124
I90
tp859
a(I0
I0
I0
tp860
a(I0
I0
I0
tp861
a(I1
I47
I46
tp862
a(I117
I166
I49
tp863
a(I155
I214
I59
tp864
a(I0
I0
I0
tp865
a(I1
I25
I24
tp866
a(I1
I18
I17
tp867
a(I0
I0
I0
tp868
a(I0
I0
I0
tp869
a(I1
I54
I53
tp870
a(I1
I48
I47
tp871
a(I40
I100
I60
tp872
a(I26
I94
I68
tp873
a(I116
I123
I7
tp874
a(I82
I147
I65
tp875
a(I1
I39
I38
tp876
a(I1
I78
I77
tp877
a(I2
I37
I35
tp878
a(I29
I65
I36
tp879
a(I1
I17
I16
tp880
a(I1
I54
I53
tp881
a(I3
I74
I71
tp882
a(I3
I33
I30
tp883
a(I25
I79
I54
tp884
a(I0
I0
I0
tp885
a(I0
I0
I0
tp886
a(I0
I0
I0
tp887
a(I23
I43
I20
tp888
a(I53
I100
I47
tp889
a(I138
I159
I21
tp890
a(I4
I83
I79
tp891
a(I91
I138
I47
tp892
a(I77
I101
I24
tp893
a(I1
I37
I36
tp894
a(I18
I133
I115
tp895
a(I101
I122
I21
tp896
a(I0
I0
I0
tp897
a(I84
I113
I29
tp898
a(I100
I124
I24
tp899
a(I1
I88
I87
tp900
a(I1
I19
I18
tp901
a(I31
I105
I74
tp902
a(I0
I0
I0
tp903
a(I85
I145
I60
tp904
a(I1
I57
I56
tp905
a(I0
I0
I0
tp906
a(I8
I43
I35
tp907
a(I10
I76
I66
tp908
a(I6
I49
I43
tp909
a(I59
I90
I31
tp910
a(I0
I0
I0
tp911
a(I1
I41
I40
tp912
a(I35
I99
I64
tp913
a(I79
I168
I89
tp914
a(I45
I92
I47
tp915
a(I69
I132
I63
tp916
a(I38
I79
I41
tp917
a(I0
I0
I0
tp918
a(I16
I59
I43
tp919
a(I31
I95
I64
tp920
a(I124
I228
I104
tp921
a(I0
I0
I0
tp922
a(I95
I134
I39
tp923
a(I13
I77
I64
tp924
a(I1
I33
I32
tp925
a(I66
I97
I31
tp926
a(I68
I125
I57
tp927
a(I82
I118
I36
tp928
a(I64
I144
I80
tp929
a(I38
I54
I16
tp930
a(I28
I77
I49
tp931
a(I18
I77
I59
tp932
a(I32
I80
I48
tp933
a(I39
I75
I36
tp934
a(I59
I99
I40
tp935
a(I23
I78
I55
tp936
a(I82
I123
I41
tp937
a(I99
I148
I49
tp938
a(I26
I55
I29
tp939
a(I0
I0
I0
tp940
a(I137
I148
I11
tp941
a(I1
I10
I9
tp942
a(I159
I259
I100
tp943
a(I3
I49
I46
tp944
a(I37
I57
I20
tp945
a(I70
I89
I19
tp946
a(I0
I0
I0
tp947
a(I0
I0
I0
tp948
a(I0
I0
I0
tp949
a(I33
I52
I19
tp950
a(I76
I93
I17
tp951
a(I15
I44
I29
tp952
a(I45
I72
I27
tp953
a(I1
I59
I58
tp954
a(I33
I87
I54
tp955
a(I12
I37
I25
tp956
a(I97
I120
I23
tp957
a(I40
I106
I66
tp958
a(I0
I0
I0
tp959
a(I1
I15
I14
tp960
a(I69
I95
I26
tp961
a(I0
I0
I0
tp962
a(I1
I100
I99
tp963
a(I27
I73
I46
tp964
a(I11
I39
I28
tp965
a(I1
I43
I42
tp966
a(I1
I32
I31
tp967
a(I53
I82
I29
tp968
a(I55
I86
I31
tp969
a(I1
I24
I23
tp970
a(I79
I114
I35
tp971
a(I87
I100
I13
tp972
a(I1
I61
I60
tp973
a(I32
I72
I40
tp974
a(I1
I29
I28
tp975
a(I1
I28
I27
tp976
a(I18
I92
I74
tp977
a(I54
I105
I51
tp978
a(I0
I0
I0
tp979
a(I33
I73
I40
tp980
a(I30
I78
I48
tp981
a(I17
I66
I49
tp982
a(I55
I69
I14
tp983
a(I1
I40
I39
tp984
a(I0
I0
I0
tp985
a(I0
I0
I0
tp986
a(I14
I46
I32
tp987
a(I82
I125
I43
tp988
a(I5
I45
I40
tp989
a(I1
I35
I34
tp990
a(I1
I54
I53
tp991
a(I100
I134
I34
tp992
a(I0
I0
I0
tp993
a(I6
I43
I37
tp994
a(I0
I0
I0
tp995
a(I189
I215
I26
tp996
a(I6
I50
I44
tp997
a(I0
I0
I0
tp998
a(I4
I52
I48
tp999
a(I0
I0
I0
tp1000
a(I74
I110
I36
tp1001
a(I49
I144
I95
tp1002
a(I64
I84
I20
tp1003
a(I1
I29
I28
tp1004
a(I66
I104
I38
tp1005
a(I30
I54
I24
tp1006
a(I1
I31
I30
tp1007
a(I1
I64
I63
tp1008
a(I10
I54
I44
tp1009
a(I83
I83
I0
tp1010
a(I47
I123
I76
tp1011
a(I46
I102
I56
tp1012
a(I1
I98
I97
tp1013
a(I1
I44
I43
tp1014
a(I22
I59
I37
tp1015
a(I0
I0
I0
tp1016
a(I0
I0
I0
tp1017
a(I0
I0
I0
tp1018
a(I0
I0
I0
tp1019
a(I1
I39
I38
tp1020
a(I1
I24
I23
tp1021
a(I11
I35
I24
tp1022
a(I51
I84
I33
tp1023
a(I5
I37
I32
tp1024
a(I1
I42
I41
tp1025
a(I1
I30
I29
tp1026
a(I1
I69
I68
tp1027
a(I8
I49
I41
tp1028
a(I46
I97
I51
tp1029
a(I17
I47
I30
tp1030
a(I10
I53
I43
tp1031
a(I1
I11
I10
tp1032
a(I51
I82
I31
tp1033
a(I76
I114
I38
tp1034
a(I36
I75
I39
tp1035
a(I0
I0
I0
tp1036
a(I110
I133
I23
tp1037
a(I0
I0
I0
tp1038
a(I114
I140
I26
tp1039
a(I1
I13
I12
tp1040
a(I103
I118
I15
tp1041
a(I0
I0
I0
tp1042
a(I373
I388
I15
tp1043
a(I0
I0
I0
tp1044
a(I0
I0
I0
tp1045
a(I0
I0
I0
tp1046
a(I0
I0
I0
tp1047
a(I69
I90
I21
tp1048
a(I94
I109
I15
tp1049
a(I141
I153
I12
tp1050
a(I30
I45
I15
tp1051
a(I188
I203
I15
tp1052
a(I152
I172
I20
tp1053
a(I0
I0
I0
tp1054
a(I26
I40
I14
tp1055
a(I10
I34
I24
tp1056
a(I0
I0
I0
tp1057
a(I39
I73
I34
tp1058
a(I1
I18
I17
tp1059
a(I8
I40
I32
tp1060
a(I119
I133
I14
tp1061
a(I37
I51
I14
tp1062
a(I54
I77
I23
tp1063
a(I6
I30
I24
tp1064
a(I5
I51
I46
tp1065
a(I10
I31
I21
tp1066
a(I0
I0
I0
tp1067
a(I0
I0
I0
tp1068
a(I143
I163
I20
tp1069
a(I0
I0
I0
tp1070
a(I1
I22
I21
tp1071
a(I0
I0
I0
tp1072
a(I0
I0
I0
tp1073
a(I1
I22
I21
tp1074
a(I0
I0
I0
tp1075
a(I37
I58
I21
tp1076
a(I43
I69
I26
tp1077
a(I0
I0
I0
tp1078
a(I0
I0
I0
tp1079
a(I1
I16
I15
tp1080
a(I34
I46
I12
tp1081
a(I0
I0
I0
tp1082
a(I154
I198
I44
tp1083
a(I57
I80
I23
tp1084
a(I87
I101
I14
tp1085
a(I14
I58
I44
tp1086
a(I0
I0
I0
tp1087
a(I0
I0
I0
tp1088
a(I0
I0
I0
tp1089
a(I88
I100
I12
tp1090
a(I0
I0
I0
tp1091
a(I6
I21
I15
tp1092
a(I0
I0
I0
tp1093
a(I21
I33
I12
tp1094
a(I0
I0
I0
tp1095
a(I0
I0
I0
tp1096
a(I20
I66
I46
tp1097
a(I0
I0
I0
tp1098
a(I0
I0
I0
tp1099
a(I0
I0
I0
tp1100
a(I0
I0
I0
tp1101
a(I49
I97
I48
tp1102
a(I84
I150
I66
tp1103
a(I26
I46
I20
tp1104
a(I65
I90
I25
tp1105
a(I0
I0
I0
tp1106
a(I84
I111
I27
tp1107
a(I13
I31
I18
tp1108
a(I12
I12
I0
tp1109
a(I17
I40
I23
tp1110
a(I20
I49
I29
tp1111
a(I33
I75
I42
tp1112
a(I17
I61
I44
tp1113
a(I28
I55
I27
tp1114
a(I19
I51
I32
tp1115
a(I1
I9
I8
tp1116
a(I21
I54
I33
tp1117
a(I20
I46
I26
tp1118
a(I56
I79
I23
tp1119
a(I0
I0
I0
tp1120
a(I27
I42
I15
tp1121
a(I28
I50
I22
tp1122
a(I0
I0
I0
tp1123
a(I20
I49
I29
tp1124
a(I81
I124
I43
tp1125
a(I0
I0
I0
tp1126
a(I0
I0
I0
tp1127
a(I0
I0
I0
tp1128
a(I117
I117
I0
tp1129
a(I168
I195
I27
tp1130
a(I63
I63
I0
tp1131
a(I284
I307
I23
tp1132
a(I105
I124
I19
tp1133
a(I0
I0
I0
tp1134
a(I0
I0
I0
tp1135
a(I0
I0
I0
tp1136
a(I136
I147
I11
tp1137
a(I31
I61
I30
tp1138
a(I70
I98
I28
tp1139
a(I0
I0
I0
tp1140
a(I25
I76
I51
tp1141
a(I0
I0
I0
tp1142
a(I30
I59
I29
tp1143
a(I0
I0
I0
tp1144
a(I0
I0
I0
tp1145
a(I0
I0
I0
tp1146
a(I36
I56
I20
tp1147
a(I0
I0
I0
tp1148
a(I84
I122
I38
tp1149
a(I24
I57
I33
tp1150
a(I0
I0
I0
tp1151
a(I22
I22
I0
tp1152
a(I0
I0
I0
tp1153
a(I114
I124
I10
tp1154
a(I58
I89
I31
tp1155
a(I26
I68
I42
tp1156
a(I76
I89
I13
tp1157
a(I27
I43
I16
tp1158
a(I0
I0
I0
tp1159
a(I0
I0
I0
tp1160
a(I32
I50
I18
tp1161
a(I0
I0
I0
tp1162
a(I0
I0
I0
tp1163
a(I15
I27
I12
tp1164
a(I0
I0
I0
tp1165
a(I32
I71
I39
tp1166
a(I0
I0
I0
tp1167
a(I0
I0
I0
tp1168
a(I119
I133
I14
tp1169
a(I0
I0
I0
tp1170
a(I0
I0
I0
tp1171
a(I52
I116
I64
tp1172
a(I0
I0
I0
tp1173
a(I132
I166
I34
tp1174
a(I70
I111
I41
tp1175
a(I28
I59
I31
tp1176
a(I185
I193
I8
tp1177
a(I0
I0
I0
tp1178
a(I0
I0
I0
tp1179
a(I0
I0
I0
tp1180
a(I0
I0
I0
tp1181
a(I0
I0
I0
tp1182
a(I40
I67
I27
tp1183
a(I0
I0
I0
tp1184
a(I0
I0
I0
tp1185
a(I0
I0
I0
tp1186
a(I75
I104
I29
tp1187
a(I20
I53
I33
tp1188
a(I0
I0
I0
tp1189
a(I0
I0
I0
tp1190
a(I0
I0
I0
tp1191
a(I0
I0
I0
tp1192
a(I0
I0
I0
tp1193
a(I0
I0
I0
tp1194
a(I0
I0
I0
tp1195
a(I0
I0
I0
tp1196
a(I0
I0
I0
tp1197
a(I0
I0
I0
tp1198
a(I0
I0
I0
tp1199
a(I0
I0
I0
tp1200
a(I27
I68
I41
tp1201
a(I56
I123
I67
tp1202
a(I0
I0
I0
tp1203
a(I0
I0
I0
tp1204
a(I0
I0
I0
tp1205
a(I0
I0
I0
tp1206
a(I0
I0
I0
tp1207
a(I0
I0
I0
tp1208
a(I0
I0
I0
tp1209
a(I0
I0
I0
tp1210
a(I70
I114
I44
tp1211
a(I17
I39
I22
tp1212
a(I25
I40
I15
tp1213
a(I0
I0
I0
tp1214
a(I0
I0
I0
tp1215
a(I0
I0
I0
tp1216
a(I0
I0
I0
tp1217
a(I0
I0
I0
tp1218
a(I0
I0
I0
tp1219
a(I0
I0
I0
tp1220
a(I63
I78
I15
tp1221
a(I24
I41
I17
tp1222
a(I20
I39
I19
tp1223
a(I20
I36
I16
tp1224
a(I35
I59
I24
tp1225
a(I48
I55
I7
tp1226
a(I0
I0
I0
tp1227
a(I25
I46
I21
tp1228
a(I24
I35
I11
tp1229
a(I0
I0
I0
tp1230
a(I0
I0
I0
tp1231
a(I66
I85
I19
tp1232
a(I52
I95
I43
tp1233
a(I0
I0
I0
tp1234
a(I0
I0
I0
tp1235
a(I0
I0
I0
tp1236
a(I0
I0
I0
tp1237
a(I0
I0
I0
tp1238
a(I0
I0
I0
tp1239
a(I0
I0
I0
tp1240
a(I290
I333
I43
tp1241
a(I24
I44
I20
tp1242
a(I0
I0
I0
tp1243
a(I0
I0
I0
tp1244
a(I22
I68
I46
tp1245
a(I21
I102
I81
tp1246
a(I0
I0
I0
tp1247
a(I0
I0
I0
tp1248
a(I0
I0
I0
tp1249
a(I26
I71
I45
tp1250
a(I0
I0
I0
tp1251
a(I0
I0
I0
tp1252
a(I0
I0
I0
tp1253
a(I9
I9
I0
tp1254
a(I0
I0
I0
tp1255
a(I0
I0
I0
tp1256
a(I0
I0
I0
tp1257
a(I0
I0
I0
tp1258
a(I0
I0
I0
tp1259
a(I0
I0
I0
tp1260
a(I0
I0
I0
tp1261
a(I0
I0
I0
tp1262
a(I0
I0
I0
tp1263
a(I0
I0
I0
tp1264
a(I0
I0
I0
tp1265
a(I113
I127
I14
tp1266
a(I0
I0
I0
tp1267
a(I27
I39
I12
tp1268
a(I0
I0
I0
tp1269
a(I0
I0
I0
tp1270
a(I69
I111
I42
tp1271
a(I0
I0
I0
tp1272
a(I0
I0
I0
tp1273
a(I30
I88
I58
tp1274
a(I0
I0
I0
tp1275
a(I23
I55
I32
tp1276
a(I0
I0
I0
tp1277
a(I0
I0
I0
tp1278
a(I0
I0
I0
tp1279
a(I0
I0
I0
tp1280
a(I0
I0
I0
tp1281
a(I0
I0
I0
tp1282
a(I0
I0
I0
tp1283
a(I26
I67
I41
tp1284
a(I0
I0
I0
tp1285
a(I19
I76
I57
tp1286
a(I75
I91
I16
tp1287
a(I66
I74
I8
tp1288
a(I0
I0
I0
tp1289
a(I30
I70
I40
tp1290
a(I154
I189
I35
tp1291
a(I35
I92
I57
tp1292
a(I0
I0
I0
tp1293
a(I26
I46
I20
tp1294
a(I12
I36
I24
tp1295
a(I0
I0
I0
tp1296
a(I0
I0
I0
tp1297
a(I0
I0
I0
tp1298
a(I0
I0
I0
tp1299
a(I0
I0
I0
tp1300
a(I21
I21
I0
tp1301
a(I0
I0
I0
tp1302
a(I44
I56
I12
tp1303
a(I0
I0
I0
tp1304
a(I22
I59
I37
tp1305
a(I0
I0
I0
tp1306
a(I25
I25
I0
tp1307
a(I0
I0
I0
tp1308
a(I84
I120
I36
tp1309
a(I0
I0
I0
tp1310
a(I0
I0
I0
tp1311
a(I21
I57
I36
tp1312
a(I0
I0
I0
tp1313
a(I0
I0
I0
tp1314
a(I0
I0
I0
tp1315
a(I0
I0
I0
tp1316
a(I0
I0
I0
tp1317
a(I0
I0
I0
tp1318
a(I0
I0
I0
tp1319
a(I19
I38
I19
tp1320
a(I0
I0
I0
tp1321
a(I0
I0
I0
tp1322
a(I0
I0
I0
tp1323
a(I0
I0
I0
tp1324
a(I0
I0
I0
tp1325
a(I24
I43
I19
tp1326
a(I4
I28
I24
tp1327
a(I0
I0
I0
tp1328
a(I156
I174
I18
tp1329
a(I44
I117
I73
tp1330
a(I47
I85
I38
tp1331
a(I48
I90
I42
tp1332
a(I0
I0
I0
tp1333
a(I1
I50
I49
tp1334
a(I44
I96
I52
tp1335
a(I1
I78
I77
tp1336
a(I0
I0
I0
tp1337
a(I49
I66
I17
tp1338
a(I0
I0
I0
tp1339
a(I79
I158
I79
tp1340
a(I9
I55
I46
tp1341
a(I0
I0
I0
tp1342
a(I127
I153
I26
tp1343
a(I0
I0
I0
tp1344
a(I213
I255
I42
tp1345
a(I34
I133
I99
tp1346
a(I1
I89
I88
tp1347
a(I102
I143
I41
tp1348
a(I0
I0
I0
tp1349
a(I8
I50
I42
tp1350
a(I8
I83
I75
tp1351
a(I236
I236
I0
tp1352
a(I0
I0
I0
tp1353
a(I0
I0
I0
tp1354
a(I0
I0
I0
tp1355
a(I171
I197
I26
tp1356
a(I8
I98
I90
tp1357
a(I7
I58
I51
tp1358
a(I0
I0
I0
tp1359
a(I0
I0
I0
tp1360
a(I0
I0
I0
tp1361
a(I64
I81
I17
tp1362
a(I0
I0
I0
tp1363
a(I188
I215
I27
tp1364
a(I0
I0
I0
tp1365
a(I302
I313
I11
tp1366
a(I0
I0
I0
tp1367
a(I0
I0
I0
tp1368
a(I58
I79
I21
tp1369
a(I54
I81
I27
tp1370
a(I28
I67
I39
tp1371
a(I100
I118
I18
tp1372
a(I0
I0
I0
tp1373
a(I110
I199
I89
tp1374
a(I7
I20
I13
tp1375
a(I0
I0
I0
tp1376
a(I0
I0
I0
tp1377
a(I0
I0
I0
tp1378
a(I48
I81
I33
tp1379
a(I0
I0
I0
tp1380
a(I0
I0
I0
tp1381
a(I54
I66
I12
tp1382
a(I269
I306
I37
tp1383
a(I63
I76
I13
tp1384
a(I221
I247
I26
tp1385
a(I130
I147
I17
tp1386
a(I15
I26
I11
tp1387
a(I0
I0
I0
tp1388
a(I12
I24
I12
tp1389
a(I12
I28
I16
tp1390
a(I172
I192
I20
tp1391
a(I121
I138
I17
tp1392
a(I49
I67
I18
tp1393
a(I93
I106
I13
tp1394
a(I7
I23
I16
tp1395
a(I46
I62
I16
tp1396
a(I0
I0
I0
tp1397
a(I123
I143
I20
tp1398
a(I67
I94
I27
tp1399
a(I10
I28
I18
tp1400
a(I8
I25
I17
tp1401
a(I0
I0
I0
tp1402
a(I29
I56
I27
tp1403
a(I40
I69
I29
tp1404
a(I210
I228
I18
tp1405
a(I55
I73
I18
tp1406
a(I0
I0
I0
tp1407
a(I34
I87
I53
tp1408
a(I195
I206
I11
tp1409
a(I74
I98
I24
tp1410
a(I0
I0
I0
tp1411
a(I0
I0
I0
tp1412
a(I60
I91
I31
tp1413
a(I84
I118
I34
tp1414
a(I98
I118
I20
tp1415
a(I78
I86
I8
tp1416
a(I0
I0
I0
tp1417
a(I24
I47
I23
tp1418
a(I0
I0
I0
tp1419
a(I0
I0
I0
tp1420
a(I71
I101
I30
tp1421
a(I28
I35
I7
tp1422
a(I0
I0
I0
tp1423
a(I137
I156
I19
tp1424
a(I0
I0
I0
tp1425
a(I36
I49
I13
tp1426
a(I0
I0
I0
tp1427
a(I1
I18
I17
tp1428
a(I113
I130
I17
tp1429
a(I1
I21
I20
tp1430
a(I0
I0
I0
tp1431
a(I1
I17
I16
tp1432
a(I2
I27
I25
tp1433
a(I41
I62
I21
tp1434
a(I6
I36
I30
tp1435
a(I47
I86
I39
tp1436
a(I0
I0
I0
tp1437
a(I106
I154
I48
tp1438
a(I9
I52
I43
tp1439
a(I24
I58
I34
tp1440
a(I43
I68
I25
tp1441
a(I11
I42
I31
tp1442
a(I1
I22
I21
tp1443
a(I0
I0
I0
tp1444
a(I9
I47
I38
tp1445
a(I0
I0
I0
tp1446
a(I4
I35
I31
tp1447
a(I0
I0
I0
tp1448
a(I0
I0
I0
tp1449
a(I12
I42
I30
tp1450
a(I21
I43
I22
tp1451
a(I37
I92
I55
tp1452
a(I12
I50
I38
tp1453
a(I0
I0
I0
tp1454
a(I24
I57
I33
tp1455
a(I11
I33
I22
tp1456
a(I70
I103
I33
tp1457
a(I1
I52
I51
tp1458
a(I0
I0
I0
tp1459
a(I1
I29
I28
tp1460
a(I102
I182
I80
tp1461
a(I1
I21
I20
tp1462
a(I60
I80
I20
tp1463
a(I29
I60
I31
tp1464
a(I8
I57
I49
tp1465
a(I1
I29
I28
tp1466
a(I1
I27
I26
tp1467
a(I1
I62
I61
tp1468
a(I0
I0
I0
tp1469
a(I45
I87
I42
tp1470
a(I84
I112
I28
tp1471
a(I0
I0
I0
tp1472
a(I2
I37
I35
tp1473
a(I0
I0
I0
tp1474
a(I61
I88
I27
tp1475
a(I20
I55
I35
tp1476
a(I3
I27
I24
tp1477
a(I4
I14
I10
tp1478
a(I102
I127
I25
tp1479
a(I96
I163
I67
tp1480
a(I24
I55
I31
tp1481
a(I1
I26
I25
tp1482
a(I69
I100
I31
tp1483
a(I11
I51
I40
tp1484
a(I1
I28
I27
tp1485
a(I20
I109
I89
tp1486
a(I1
I32
I31
tp1487
a(I60
I60
I0
tp1488
a(I1
I55
I54
tp1489
a(I54
I95
I41
tp1490
a(I15
I29
I14
tp1491
a(I10
I48
I38
tp1492
a(I0
I0
I0
tp1493
a(I1
I73
I72
tp1494
a(I0
I0
I0
tp1495
a(I16
I84
I68
tp1496
a(I1
I57
I56
tp1497
a(I5
I44
I39
tp1498
a(I154
I154
I0
tp1499
a(I63
I127
I64
tp1500
a(I46
I77
I31
tp1501
a(I1
I27
I26
tp1502
a(I2
I51
I49
tp1503
a(I1
I29
I28
tp1504
a(I0
I0
I0
tp1505
a(I0
I0
I0
tp1506
a(I20
I81
I61
tp1507
a(I45
I91
I46
tp1508
a(I1
I22
I21
tp1509
a(I96
I145
I49
tp1510
a(I71
I109
I38
tp1511
a(I11
I71
I60
tp1512
a(I1
I101
I100
tp1513
a(I0
I0
I0
tp1514
a(I8
I105
I97
tp1515
a(I110
I110
I0
tp1516
a(I30
I92
I62
tp1517
a(I31
I107
I76
tp1518
a(I1
I45
I44
tp1519
a(I1
I32
I31
tp1520
a(I1
I36
I35
tp1521
a(I1
I61
I60
tp1522
a(I0
I0
I0
tp1523
a(I12
I41
I29
tp1524
a(I0
I0
I0
tp1525
a(I1
I28
I27
tp1526
a(I10
I64
I54
tp1527
a(I8
I38
I30
tp1528
a(I10
I45
I35
tp1529
a(I0
I0
I0
tp1530
a(I114
I139
I25
tp1531
a(I63
I98
I35
tp1532
a(I0
I0
I0
tp1533
a(I1
I51
I50
tp1534
a(I1
I53
I52
tp1535
a(I0
I0
I0
tp1536
a(I1
I56
I55
tp1537
a(I1
I29
I28
tp1538
a(I77
I108
I31
tp1539
a(I109
I130
I21
tp1540
a(I1
I18
I17
tp1541
a(I60
I77
I17
tp1542
a(I56
I69
I13
tp1543
a(I1
I46
I45
tp1544
a(I3
I56
I53
tp1545
a(I12
I57
I45
tp1546
a(I4
I56
I52
tp1547
a(I24
I72
I48
tp1548
a(I3
I38
I35
tp1549
a(I8
I72
I64
tp1550
a(I12
I81
I69
tp1551
a(I36
I53
I17
tp1552
a(I123
I153
I30
tp1553
a(I1
I10
I9
tp1554
a(I28
I67
I39
tp1555
a(I1
I32
I31
tp1556
a(I37
I55
I18
tp1557
a(I1
I27
I26
tp1558
a(I0
I0
I0
tp1559
a(I0
I0
I0
tp1560
a(I0
I0
I0
tp1561
a(I46
I89
I43
tp1562
a(I34
I55
I21
tp1563
a(I85
I115
I30
tp1564
a(I1
I40
I39
tp1565
a(I0
I0
I0
tp1566
a(I148
I167
I19
tp1567
a(I99
I148
I49
tp1568
a(I32
I52
I20
tp1569
a(I0
I0
I0
tp1570
a(I0
I0
I0
tp1571
a(I1
I20
I19
tp1572
a(I1
I90
I89
tp1573
a(I0
I0
I0
tp1574
a(I6
I20
I14
tp1575
a(I1
I1
I0
tp1576
a(I1
I43
I42
tp1577
a(I5
I77
I72
tp1578
a(I55
I75
I20
tp1579
a(I0
I0
I0
tp1580
a(I0
I0
I0
tp1581
a(I0
I0
I0
tp1582
a(I0
I0
I0
tp1583
a(I0
I0
I0
tp1584
a(I1
I4
I3
tp1585
a(I1
I27
I26
tp1586
a(I1
I38
I37
tp1587
a(I57
I84
I27
tp1588
a(I1
I13
I12
tp1589
a(I0
I0
I0
tp1590
a(I26
I44
I18
tp1591
a(I24
I65
I41
tp1592
a(I71
I71
I0
tp1593
a(I110
I133
I23
tp1594
a(I28
I28
I0
tp1595
a(I0
I0
I0
tp1596
a(I0
I0
I0
tp1597
a(I22
I78
I56
tp1598
a(I46
I95
I49
tp1599
a(I2
I48
I46
tp1600
a(I13
I36
I23
tp1601
a(I0
I0
I0
tp1602
a(I0
I0
I0
tp1603
a(I81
I119
I38
tp1604
a(I20
I51
I31
tp1605
a(I1
I43
I42
tp1606
a(I4
I82
I78
tp1607
a(I0
I0
I0
tp1608
a(I0
I0
I0
tp1609
a(I118
I144
I26
tp1610
a(I0
I0
I0
tp1611
a(I7
I66
I59
tp1612
a(I0
I0
I0
tp1613
a(I19
I52
I33
tp1614
a(I52
I86
I34
tp1615
a(I88
I124
I36
tp1616
a(I134
I148
I14
tp1617
a(I235
I260
I25
tp1618
a(I1
I23
I22
tp1619
a(I1
I6
I5
tp1620
a(I0
I0
I0
tp1621
a(I129
I170
I41
tp1622
a(I1
I12
I11
tp1623
a(I2
I55
I53
tp1624
a(I42
I80
I38
tp1625
a(I0
I0
I0
tp1626
a(I0
I0
I0
tp1627
a(I0
I0
I0
tp1628
a(I17
I49
I32
tp1629
a(I0
I0
I0
tp1630
a(I0
I0
I0
tp1631
a(I87
I121
I34
tp1632
a(I19
I75
I56
tp1633
a(I101
I124
I23
tp1634
a(I94
I111
I17
tp1635
a(I17
I47
I30
tp1636
a(I1
I21
I20
tp1637
a(I26
I100
I74
tp1638
a(I0
I0
I0
tp1639
a(I0
I0
I0
tp1640
a(I1
I17
I16
tp1641
a(I0
I0
I0
tp1642
a(I51
I136
I85
tp1643
a(I36
I62
I26
tp1644
a(I0
I0
I0
tp1645
a(I0
I0
I0
tp1646
a(I82
I100
I18
tp1647
a(I0
I0
I0
tp1648
a(I21
I93
I72
tp1649
a(I1
I17
I16
tp1650
a(I25
I92
I67
tp1651
a(I68
I100
I32
tp1652
a(I115
I147
I32
tp1653
a(I1
I28
I27
tp1654
a(I37
I83
I46
tp1655
a(I144
I171
I27
tp1656
a(I0
I0
I0
tp1657
a(I0
I0
I0
tp1658
a(I62
I100
I38
tp1659
a(I1
I20
I19
tp1660
a(I25
I25
I0
tp1661
a(I1
I54
I53
tp1662
a(I84
I148
I64
tp1663
a(I44
I63
I19
tp1664
a(I0
I0
I0
tp1665
a(I103
I149
I46
tp1666
a(I0
I0
I0
tp1667
a(I41
I69
I28
tp1668
a(I26
I88
I62
tp1669
a(I0
I0
I0
tp1670
a(I0
I0
I0
tp1671
a(I0
I0
I0
tp1672
a(I5
I55
I50
tp1673
a(I0
I0
I0
tp1674
a(I4
I39
I35
tp1675
a(I42
I90
I48
tp1676
a(I0
I0
I0
tp1677
a(I12
I40
I28
tp1678
a(I36
I73
I37
tp1679
a(I1
I48
I47
tp1680
a(I1
I34
I33
tp1681
a(I0
I0
I0
tp1682
a(I42
I87
I45
tp1683
a(I155
I193
I38
tp1684
a(I1
I124
I123
tp1685
a(I0
I0
I0
tp1686
a(I0
I0
I0
tp1687
a(I1
I19
I18
tp1688
a(I0
I0
I0
tp1689
a(I0
I0
I0
tp1690
a(I1
I22
I21
tp1691
a(I66
I95
I29
tp1692
a(I0
I0
I0
tp1693
a(I0
I0
I0
tp1694
a(I26
I81
I55
tp1695
a(I92
I112
I20
tp1696
a(I0
I0
I0
tp1697
a(I0
I0
I0
tp1698
a(I35
I71
I36
tp1699
a(I23
I47
I24
tp1700
a(I0
I0
I0
tp1701
a(I236
I260
I24
tp1702
a(I45
I64
I19
tp1703
a(I0
I0
I0
tp1704
a(I0
I0
I0
tp1705
a(I1
I47
I46
tp1706
a(I23
I34
I11
tp1707
a(I120
I148
I28
tp1708
a(I34
I61
I27
tp1709
a(I178
I282
I104
tp1710
a(I0
I0
I0
tp1711
a(I0
I0
I0
tp1712
a(I0
I0
I0
tp1713
a(I0
I0
I0
tp1714
a(I1
I24
I23
tp1715
a(I148
I170
I22
tp1716
a(I0
I0
I0
tp1717
a(I0
I0
I0
tp1718
a(I0
I0
I0
tp1719
a(I0
I0
I0
tp1720
a(I0
I0
I0
tp1721
a(I0
I0
I0
tp1722
a(I0
I0
I0
tp1723
a(I0
I0
I0
tp1724
a(I0
I0
I0
tp1725
a(I0
I0
I0
tp1726
a(I0
I0
I0
tp1727
a(I0
I0
I0
tp1728
a(I0
I0
I0
tp1729
a(I0
I0
I0
tp1730
a(I0
I0
I0
tp1731
a(I0
I0
I0
tp1732
a(I0
I0
I0
tp1733
a(I0
I0
I0
tp1734
a(I0
I0
I0
tp1735
a(I0
I0
I0
tp1736
a(I0
I0
I0
tp1737
a(I1
I21
I20
tp1738
a(I0
I0
I0
tp1739
a(I23
I46
I23
tp1740
a(I2
I28
I26
tp1741
a(I13
I51
I38
tp1742
a(I15
I37
I22
tp1743
a(I44
I87
I43
tp1744
a(I11
I43
I32
tp1745
a(I0
I0
I0
tp1746
a(I46
I57
I11
tp1747
a(I0
I0
I0
tp1748
a(I0
I0
I0
tp1749
a(I0
I0
I0
tp1750
a(I0
I0
I0
tp1751
a(I0
I0
I0
tp1752
a(I1
I33
I32
tp1753
a(I0
I0
I0
tp1754
a(I35
I47
I12
tp1755
a(I22
I51
I29
tp1756
a(I137
I156
I19
tp1757
a(I81
I98
I17
tp1758
a(I0
I0
I0
tp1759
a(I69
I126
I57
tp1760
a(I0
I0
I0
tp1761
a(I27
I43
I16
tp1762
a(I0
I0
I0
tp1763
a(I47
I63
I16
tp1764
a(I27
I41
I14
tp1765
a(I26
I67
I41
tp1766
a(I0
I0
I0
tp1767
a(I105
I130
I25
tp1768
a(I0
I0
I0
tp1769
a(I41
I88
I47
tp1770
a(I82
I134
I52
tp1771
a(I0
I0
I0
tp1772
a(I136
I154
I18
tp1773
a(I46
I76
I30
tp1774
a(I0
I0
I0
tp1775
a(I0
I0
I0
tp1776
a(I40
I67
I27
tp1777
a(I180
I206
I26
tp1778
a(I29
I43
I14
tp1779
a(I0
I0
I0
tp1780
a(I22
I45
I23
tp1781
a(I0
I0
I0
tp1782
a(I0
I0
I0
tp1783
a(I0
I0
I0
tp1784
a(I1
I19
I18
tp1785
a(I1
I24
I23
tp1786
a(I21
I43
I22
tp1787
a(I0
I0
I0
tp1788
a(I0
I0
I0
tp1789
a(I1
I18
I17
tp1790
a(I0
I0
I0
tp1791
a(I84
I97
I13
tp1792
a(I2
I30
I28
tp1793
a(I61
I117
I56
tp1794
a(I27
I41
I14
tp1795
a(I0
I0
I0
tp1796
a(I82
I97
I15
tp1797
a(I0
I0
I0
tp1798
a(I0
I0
I0
tp1799
a(I0
I0
I0
tp1800
a(I0
I0
I0
tp1801
a(I0
I0
I0
tp1802
a(I0
I0
I0
tp1803
a(I0
I0
I0
tp1804
a(I0
I0
I0
tp1805
a(I0
I0
I0
tp1806
a(I85
I97
I12
tp1807
a(I96
I124
I28
tp1808
a(I69
I111
I42
tp1809
a(I15
I141
I126
tp1810
a(I0
I0
I0
tp1811
a(I103
I145
I42
tp1812
a(I0
I0
I0
tp1813
a(I30
I65
I35
tp1814
a(I1
I12
I11
tp1815
a(I0
I0
I0
tp1816
a(I0
I0
I0
tp1817
a(I0
I0
I0
tp1818
a(I0
I0
I0
tp1819
a(I0
I0
I0
tp1820
a(I0
I0
I0
tp1821
a(I0
I0
I0
tp1822
a(I0
I0
I0
tp1823
a(I1
I78
I77
tp1824
a(I101
I128
I27
tp1825
a(I0
I0
I0
tp1826
a(I72
I112
I40
tp1827
a(I0
I0
I0
tp1828
a(I0
I0
I0
tp1829
a(I0
I0
I0
tp1830
a(I0
I0
I0
tp1831
a(I0
I0
I0
tp1832
a(I0
I0
I0
tp1833
a(I0
I0
I0
tp1834
a(I95
I124
I29
tp1835
a(I1
I52
I51
tp1836
a(I18
I54
I36
tp1837
a(I0
I0
I0
tp1838
a(I47
I111
I64
tp1839
a(I0
I0
I0
tp1840
a(I78
I99
I21
tp1841
a(I58
I94
I36
tp1842
a(I3
I32
I29
tp1843
a(I133
I147
I14
tp1844
a(I71
I90
I19
tp1845
a(I27
I47
I20
tp1846
a(I0
I0
I0
tp1847
a(I0
I0
I0
tp1848
a(I23
I50
I27
tp1849
a(I27
I52
I25
tp1850
a(I159
I219
I60
tp1851
a(I40
I84
I44
tp1852
a(I122
I140
I18
tp1853
a(I123
I134
I11
tp1854
a(I5
I56
I51
tp1855
a(I1
I10
I9
tp1856
a(I0
I0
I0
tp1857
a(I9
I42
I33
tp1858
a(I112
I142
I30
tp1859
a(I144
I171
I27
tp1860
a(I0
I0
I0
tp1861
a(I1
I167
I166
tp1862
a(I73
I105
I32
tp1863
a(I46
I137
I91
tp1864
a(I0
I0
I0
tp1865
a(I146
I195
I49
tp1866
a(I1
I19
I18
tp1867
a(I11
I37
I26
tp1868
a(I78
I92
I14
tp1869
a(I43
I55
I12
tp1870
a(I77
I101
I24
tp1871
a(I70
I91
I21
tp1872
a(I5
I21
I16
tp1873
a(I0
I0
I0
tp1874
a(I0
I0
I0
tp1875
a(I36
I55
I19
tp1876
a(I0
I0
I0
tp1877
a(I0
I0
I0
tp1878
a(I88
I124
I36
tp1879
a(I70
I85
I15
tp1880
a(I34
I48
I14
tp1881
a(I8
I27
I19
tp1882
a(I29
I49
I20
tp1883
a(I20
I32
I12
tp1884
a(I0
I0
I0
tp1885
a(I0
I0
I0
tp1886
a(I0
I0
I0
tp1887
a(I5
I20
I15
tp1888
a(I0
I0
I0
tp1889
a(I0
I0
I0
tp1890
a(I0
I0
I0
tp1891
a(I14
I104
I90
tp1892
a(I28
I82
I54
tp1893
a(I150
I171
I21
tp1894
a(I68
I83
I15
tp1895
a(I56
I76
I20
tp1896
a(I0
I0
I0
tp1897
a(I111
I132
I21
tp1898
a(I114
I136
I22
tp1899
a(I1
I92
I91
tp1900
a(I6
I33
I27
tp1901
a(I0
I0
I0
tp1902
a(I55
I79
I24
tp1903
a(I144
I172
I28
tp1904
a(I0
I0
I0
tp1905
a(I71
I94
I23
tp1906
a(I0
I0
I0
tp1907
a(I60
I96
I36
tp1908
a(I33
I63
I30
tp1909
a(I0
I0
I0
tp1910
a(I0
I0
I0
tp1911
a(I90
I135
I45
tp1912
a(I0
I0
I0
tp1913
a(I119
I162
I43
tp1914
a(I1
I38
I37
tp1915
a(I36
I65
I29
tp1916
a(I104
I140
I36
tp1917
a(I53
I125
I72
tp1918
a(I22
I37
I15
tp1919
a(I33
I47
I14
tp1920
a(I39
I119
I80
tp1921
a(I0
I0
I0
tp1922
a(I103
I137
I34
tp1923
a(I147
I148
I1
tp1924
a(I133
I170
I37
tp1925
a(I110
I121
I11
tp1926
a(I0
I0
I0
tp1927
a(I195
I215
I20
tp1928
a(I48
I63
I15
tp1929
a(I134
I158
I24
tp1930
a(I0
I0
I0
tp1931
a(I73
I91
I18
tp1932
a(I158
I203
I45
tp1933
a(I266
I285
I19
tp1934
a(I84
I120
I36
tp1935
a(I0
I0
I0
tp1936
a(I0
I0
I0
tp1937
a(I0
I0
I0
tp1938
a(I33
I71
I38
tp1939
a(I27
I52
I25
tp1940
a(I42
I53
I11
tp1941
a(I0
I0
I0
tp1942
a(I0
I0
I0
tp1943
a(I0
I0
I0
tp1944
a(I15
I40
I25
tp1945
a(I18
I89
I71
tp1946
a(I8
I48
I40
tp1947
a(I13
I64
I51
tp1948
a(I27
I61
I34
tp1949
a(I39
I99
I60
tp1950
a(I0
I0
I0
tp1951
a(I0
I0
I0
tp1952
a(I0
I0
I0
tp1953
a(I105
I123
I18
tp1954
a(I0
I0
I0
tp1955
a(I62
I99
I37
tp1956
a(I0
I0
I0
tp1957
a(I0
I0
I0
tp1958
a(I28
I116
I88
tp1959
a(I92
I136
I44
tp1960
a(I1
I32
I31
tp1961
a(I122
I147
I25
tp1962
a(I38
I87
I49
tp1963
a(I1
I59
I58
tp1964
a(I94
I144
I50
tp1965
a(I0
I0
I0
tp1966
a(I1
I46
I45
tp1967
a(I14
I69
I55
tp1968
a(I0
I0
I0
tp1969
a(I82
I177
I95
tp1970
a(I108
I140
I32
tp1971
a(I0
I0
I0
tp1972
a(I0
I0
I0
tp1973
a(I0
I0
I0
tp1974
a(I0
I0
I0
tp1975
a(I145
I176
I31
tp1976
a(I29
I208
I179
tp1977
a(I34
I96
I62
tp1978
a(I0
I0
I0
tp1979
a(I1
I16
I15
tp1980
a(I0
I0
I0
tp1981
a(I33
I66
I33
tp1982
a(I28
I60
I32
tp1983
a(I0
I0
I0
tp1984
a(I0
I0
I0
tp1985
a(I131
I168
I37
tp1986
a(I182
I207
I25
tp1987
a(I0
I0
I0
tp1988
a(I216
I278
I62
tp1989
a(I0
I0
I0
tp1990
a(I28
I60
I32
tp1991
a(I90
I113
I23
tp1992
a(I0
I0
I0
tp1993
a(I0
I0
I0
tp1994
a(I0
I0
I0
tp1995
a(I0
I0
I0
tp1996
a(I0
I0
I0
tp1997
a(I55
I123
I68
tp1998
a(I0
I0
I0
tp1999
a(I22
I95
I73
tp2000
a(I20
I88
I68
tp2001
a(I0
I0
I0
tp2002
a(I18
I37
I19
tp2003
a(I0
I0
I0
tp2004
a(I19
I99
I80
tp2005
a(I0
I0
I0
tp2006
a(I0
I0
I0
tp2007
a(I0
I0
I0
tp2008
a(I94
I123
I29
tp2009
a(I0
I0
I0
tp2010
a(I1
I44
I43
tp2011
a(I0
I0
I0
tp2012
a(I0
I0
I0
tp2013
a(I0
I0
I0
tp2014
a(I0
I0
I0
tp2015
a(I0
I0
I0
tp2016
a(I52
I121
I69
tp2017
a(I0
I0
I0
tp2018
a(I0
I0
I0
tp2019
a(I0
I0
I0
tp2020
a(I0
I0
I0
tp2021
a(I0
I0
I0
tp2022
a(I0
I0
I0
tp2023
a(I0
I0
I0
tp2024
a(I0
I0
I0
tp2025
a(I0
I0
I0
tp2026
a(I0
I0
I0
tp2027
a(I0
I0
I0
tp2028
a(I0
I0
I0
tp2029
a(I0
I0
I0
tp2030
a(I0
I0
I0
tp2031
a(I0
I0
I0
tp2032
a(I139
I171
I32
tp2033
a(I0
I0
I0
tp2034
a(I0
I0
I0
tp2035
a(I0
I0
I0
tp2036
a(I0
I0
I0
tp2037
a(I0
I0
I0
tp2038
a(I0
I0
I0
tp2039
a(I0
I0
I0
tp2040
a(I0
I0
I0
tp2041
a(I0
I0
I0
tp2042
a(I49
I49
I0
tp2043
a(I0
I0
I0
tp2044
a(I0
I19
I19
tp2045
a(I172
I213
I41
tp2046
a(I1
I57
I56
tp2047
a(I0
I0
I0
tp2048
a(I1
I55
I54
tp2049
a(I0
I0
I0
tp2050
a(I3
I143
I140
tp2051
a(I79
I80
I1
tp2052
a(I0
I0
I0
tp2053
a(I83
I124
I41
tp2054
a(I1
I14
I13
tp2055
a(I104
I160
I56
tp2056
a(I0
I0
I0
tp2057
a(I0
I0
I0
tp2058
a(I24
I63
I39
tp2059
a(I0
I0
I0
tp2060
a(I131
I162
I31
tp2061
a(I0
I0
I0
tp2062
a(I0
I0
I0
tp2063
a(I22
I86
I64
tp2064
a(I41
I70
I29
tp2065
a(I0
I0
I0
tp2066
a(I20
I65
I45
tp2067
a(I38
I124
I86
tp2068
a(I0
I0
I0
tp2069
a(I1
I22
I21
tp2070
a(I60
I82
I22
tp2071
a(I31
I59
I28
tp2072
a(I0
I0
I0
tp2073
a(I50
I90
I40
tp2074
a(I0
I0
I0
tp2075
a(I0
I0
I0
tp2076
a(I0
I0
I0
tp2077
a(I1
I17
I16
tp2078
a(I116
I144
I28
tp2079
a(I66
I147
I81
tp2080
a(I7
I89
I82
tp2081
a(I0
I0
I0
tp2082
a(I0
I0
I0
tp2083
a(I0
I0
I0
tp2084
a(I0
I0
I0
tp2085
a(I0
I0
I0
tp2086
a(I0
I0
I0
tp2087
a(I56
I98
I42
tp2088
a(I34
I100
I66
tp2089
a(I0
I0
I0
tp2090
a(I120
I172
I52
tp2091
a(I71
I148
I77
tp2092
a(I103
I151
I48
tp2093
a(I0
I148
I148
tp2094
a(I0
I108
I108
tp2095
a(I32
I130
I98
tp2096
a(I0
I0
I0
tp2097
a(I0
I0
I0
tp2098
a(I20
I60
I40
tp2099
a(I121
I146
I25
tp2100
a(I115
I245
I130
tp2101
a(I0
I0
I0
tp2102
a(I132
I145
I13
tp2103
a(I11
I45
I34
tp2104
a(I0
I89
I89
tp2105
a(I0
I0
I0
tp2106
a(I0
I0
I0
tp2107
a(I59
I89
I30
tp2108
a(I0
I0
I0
tp2109
a(I89
I124
I35
tp2110
a(I8
I57
I49
tp2111
a(I114
I141
I27
tp2112
a(I0
I153
I153
tp2113
a(I0
I60
I60
tp2114
a(I0
I0
I0
tp2115
a(I0
I0
I0
tp2116
a(I0
I0
I0
tp2117
a(I0
I97
I97
tp2118
a(I0
I112
I112
tp2119
a(I0
I35
I35
tp2120
a(I0
I58
I58
tp2121
a(I0
I113
I113
tp2122
a(I0
I167
I167
tp2123
a(I0
I0
I0
tp2124
a(I0
I0
I0
tp2125
a(I0
I125
I125
tp2126
a(I15
I100
I85
tp2127
a(I0
I0
I0
tp2128
a(I51
I93
I42
tp2129
a(I0
I0
I0
tp2130
a(I41
I90
I49
tp2131
a(I0
I0
I0
tp2132
a(I0
I0
I0
tp2133
a(I65
I104
I39
tp2134
a(I0
I0
I0
tp2135
a(I130
I130
I0
tp2136
a(I6
I51
I45
tp2137
a(I58
I196
I138
tp2138
a(I80
I121
I41
tp2139
a(I84
I96
I12
tp2140
a(I54
I115
I61
tp2141
a(I21
I62
I41
tp2142
a(I59
I114
I55
tp2143
a(I0
I0
I0
tp2144
a(I0
I0
I0
tp2145
a(I0
I0
I0
tp2146
a(I119
I147
I28
tp2147
a(I0
I0
I0
tp2148
a(I0
I0
I0
tp2149
a(I78
I78
I0
tp2150
a(I53
I53
I0
tp2151
a(I0
I0
I0
tp2152
a(I92
I92
I0
tp2153
a(I206
I206
I0
tp2154
a(I62
I124
I62
tp2155
a(I0
I0
I0
tp2156
a(I0
I0
I0
tp2157
a(I95
I171
I76
tp2158
a(I36
I85
I49
tp2159
a(I0
I0
I0
tp2160
a(I0
I0
I0
tp2161
a(I127
I180
I53
tp2162
a(I35
I110
I75
tp2163
a(I0
I0
I0
tp2164
a(I0
I0
I0
tp2165
a(I1
I24
I23
tp2166
a(I0
I0
I0
tp2167
a(I129
I169
I40
tp2168
a(I0
I0
I0
tp2169
a(I0
I0
I0
tp2170
a(I0
I0
I0
tp2171
a(I0
I0
I0
tp2172
a(I0
I0
I0
tp2173
a(I0
I0
I0
tp2174
a(I0
I0
I0
tp2175
a(I161
I186
I25
tp2176
a(I245
I285
I40
tp2177
a(I201
I223
I22
tp2178
a(I0
I0
I0
tp2179
a(I0
I0
I0
tp2180
a(I0
I0
I0
tp2181
a(I0
I0
I0
tp2182
a(I1
I31
I30
tp2183
a(I0
I0
I0
tp2184
a(I24
I63
I39
tp2185
a(I0
I0
I0
tp2186
a(I1
I29
I28
tp2187
a(I53
I154
I101
tp2188
a(I176
I198
I22
tp2189
a(I0
I0
I0
tp2190
a(I38
I128
I90
tp2191
a(I0
I0
I0
tp2192
a(I65
I88
I23
tp2193
a(I0
I0
I0
tp2194
a(I0
I0
I0
tp2195
a(I0
I0
I0
tp2196
a(I0
I0
I0
tp2197
a(I70
I165
I95
tp2198
a(I124
I165
I41
tp2199
a(I0
I64
I64
tp2200
a(I0
I0
I0
tp2201
a(I0
I0
I0
tp2202
a(I0
I0
I0
tp2203
a(I0
I0
I0
tp2204
a(I1
I27
I26
tp2205
a(I0
I0
I0
tp2206
a(I0
I0
I0
tp2207
a(I68
I109
I41
tp2208
a(I20
I60
I40
tp2209
a(I59
I148
I89
tp2210
a(I0
I0
I0
tp2211
a(I0
I0
I0
tp2212
a(I20
I83
I63
tp2213
a(I25
I56
I31
tp2214
a(I0
I0
I0
tp2215
a(I0
I0
I0
tp2216
a(I0
I0
I0
tp2217
a(I71
I147
I76
tp2218
a(I76
I145
I69
tp2219
a(I0
I0
I0
tp2220
a(I0
I0
I0
tp2221
a(I0
I0
I0
tp2222
a(I31
I61
I30
tp2223
a(I0
I0
I0
tp2224
a(I0
I0
I0
tp2225
a(I12
I114
I102
tp2226
a(I19
I72
I53
tp2227
a(I0
I49
I49
tp2228
a(I24
I64
I40
tp2229
a(I24
I148
I124
tp2230
a(I0
I84
I84
tp2231
a(I0
I0
I0
tp2232
a(I0
I0
I0
tp2233
a(I20
I64
I44
tp2234
a(I0
I0
I0
tp2235
a(I0
I0
I0
tp2236
a(I0
I0
I0
tp2237
a(I0
I0
I0
tp2238
a(I0
I0
I0
tp2239
a(I0
I0
I0
tp2240
a(I5
I29
I24
tp2241
a(I36
I98
I62
tp2242
a(I163
I195
I32
tp2243
a(I157
I290
I133
tp2244
a(I14
I67
I53
tp2245
a(I1
I100
I99
tp2246
a(I24
I112
I88
tp2247
a(I131
I175
I44
tp2248
a(I0
I0
I0
tp2249
a(I2
I32
I30
tp2250
a(I0
I0
I0
tp2251
a(I80
I118
I38
tp2252
a(I3
I88
I85
tp2253
a(I91
I121
I30
tp2254
a(I0
I0
I0
tp2255
a(I0
I0
I0
tp2256
a(I0
I0
I0
tp2257
a(I0
I0
I0
tp2258
a(I0
I0
I0
tp2259
a(I0
I0
I0
tp2260
a(I165
I197
I32
tp2261
a(I0
I0
I0
tp2262
a(I0
I0
I0
tp2263
a(I18
I134
I116
tp2264
a(I0
I0
I0
tp2265
a(I0
I0
I0
tp2266
a(I0
I0
I0
tp2267
a(I0
I0
I0
tp2268
a(I0
I0
I0
tp2269
a(I0
I0
I0
tp2270
a(I0
I0
I0
tp2271
a(I0
I0
I0
tp2272
a(I0
I0
I0
tp2273
a(I220
I387
I167
tp2274
a(I1
I45
I44
tp2275
a(I80
I117
I37
tp2276
a(I7
I72
I65
tp2277
a(I0
I0
I0
tp2278
a(I112
I158
I46
tp2279
a(I0
I0
I0
tp2280
a(I0
I0
I0
tp2281
a(I128
I188
I60
tp2282
a(I0
I0
I0
tp2283
a(I0
I0
I0
tp2284
a(I12
I50
I38
tp2285
a(I0
I0
I0
tp2286
a(I98
I163
I65
tp2287
a(I0
I0
I0
tp2288
a(I0
I0
I0
tp2289
a(I0
I0
I0
tp2290
a(I1
I1
I0
tp2291
a(I0
I0
I0
tp2292
a(I0
I0
I0
tp2293
a(I0
I0
I0
tp2294
a(I12
I97
I85
tp2295
a(I60
I83
I23
tp2296
a(I1
I57
I56
tp2297
a(I0
I0
I0
tp2298
a(I0
I0
I0
tp2299
a(I37
I100
I63
tp2300
a(I1
I35
I34
tp2301
a(I53
I88
I35
tp2302
a(I0
I0
I0
tp2303
a(I16
I77
I61
tp2304
a(I0
I0
I0
tp2305
a(I0
I0
I0
tp2306
a(I0
I0
I0
tp2307
a(I21
I82
I61
tp2308
a(I0
I0
I0
tp2309
a(I0
I0
I0
tp2310
a(I0
I0
I0
tp2311
a(I0
I0
I0
tp2312
a(I1
I67
I66
tp2313
a(I9
I80
I71
tp2314
a(I0
I0
I0
tp2315
a(I0
I0
I0
tp2316
a(I0
I0
I0
tp2317
a(I0
I0
I0
tp2318
a(I49
I89
I40
tp2319
a(I0
I0
I0
tp2320
a(I0
I0
I0
tp2321
a(I0
I0
I0
tp2322
a(I1
I123
I122
tp2323
a(I0
I0
I0
tp2324
a(I0
I0
I0
tp2325
a(I0
I0
I0
tp2326
a(I0
I0
I0
tp2327
a(I1
I39
I38
tp2328
a(I0
I0
I0
tp2329
a(I41
I114
I73
tp2330
a(I0
I0
I0
tp2331
a(I0
I0
I0
tp2332
a(I0
I0
I0
tp2333
a(I0
I0
I0
tp2334
a(I0
I0
I0
tp2335
a(I72
I105
I33
tp2336
a(I0
I0
I0
tp2337
a(I44
I119
I75
tp2338
a(I0
I0
I0
tp2339
a(I0
I0
I0
tp2340
a(I0
I0
I0
tp2341
a(I0
I0
I0
tp2342
a(I0
I0
I0
tp2343
a(I0
I0
I0
tp2344
a(I0
I0
I0
tp2345
a(I0
I0
I0
tp2346
a(I0
I0
I0
tp2347
a(I0
I0
I0
tp2348
a(I0
I0
I0
tp2349
a(I1
I33
I32
tp2350
a(I10
I49
I39
tp2351
a(I0
I0
I0
tp2352
a(I106
I131
I25
tp2353
a(I128
I128
I0
tp2354
a(I70
I121
I51
tp2355
a(I1
I38
I37
tp2356
a(I41
I41
I0
tp2357
a(I0
I0
I0
tp2358
a(I0
I0
I0
tp2359
a(I28
I103
I75
tp2360
a(I0
I0
I0
tp2361
a(I44
I66
I22
tp2362
a(I0
I0
I0
tp2363
a(I0
I0
I0
tp2364
a(I0
I0
I0
tp2365
a(I54
I72
I18
tp2366
a(I0
I0
I0
tp2367
a(I84
I120
I36
tp2368
a(I0
I0
I0
tp2369
a(I31
I63
I32
tp2370
a(I1
I43
I42
tp2371
a(I85
I193
I108
tp2372
a(I1
I57
I56
tp2373
a(I66
I133
I67
tp2374
a(I95
I134
I39
tp2375
a(I46
I58
I12
tp2376
a(I139
I243
I104
tp2377
a(I0
I0
I0
tp2378
a(I84
I118
I34
tp2379
a(I148
I185
I37
tp2380
a(I0
I0
I0
tp2381
a(I0
I0
I0
tp2382
a(I0
I0
I0
tp2383
a(I0
I0
I0
tp2384
a(I0
I0
I0
tp2385
a(I0
I0
I0
tp2386
a(I0
I0
I0
tp2387
a(I0
I0
I0
tp2388
a(I0
I0
I0
tp2389
a(I1
I112
I111
tp2390
a(I0
I0
I0
tp2391
a(I0
I0
I0
tp2392
a(I0
I0
I0
tp2393
a(I30
I171
I141
tp2394
a(I0
I0
I0
tp2395
a(I0
I0
I0
tp2396
a(I0
I0
I0
tp2397
a(I36
I96
I60
tp2398
a(I112
I171
I59
tp2399
a(I0
I0
I0
tp2400
a(I0
I0
I0
tp2401
a(I41
I71
I30
tp2402
a(I0
I0
I0
tp2403
a(I0
I0
I0
tp2404
a(I23
I46
I23
tp2405
a(I1
I15
I14
tp2406
a(I14
I124
I110
tp2407
a(I0
I0
I0
tp2408
a(I18
I76
I58
tp2409
a(I1
I93
I92
tp2410
a(I1
I29
I28
tp2411
a(I0
I0
I0
tp2412
a(I1
I82
I81
tp2413
a(I33
I76
I43
tp2414
a(I97
I97
I0
tp2415
a(I85
I85
I0
tp2416
a(I27
I70
I43
tp2417
a(I35
I53
I18
tp2418
a(I59
I128
I69
tp2419
a(I37
I103
I66
tp2420
a(I0
I0
I0
tp2421
a(I0
I0
I0
tp2422
a(I153
I176
I23
tp2423
a(I1
I76
I75
tp2424
a(I163
I201
I38
tp2425
a(I91
I134
I43
tp2426
a(I0
I0
I0
tp2427
a(I94
I134
I40
tp2428
a(I105
I161
I56
tp2429
a(I30
I56
I26
tp2430
a(I0
I0
I0
tp2431
a(I11
I35
I24
tp2432
a(I58
I104
I46
tp2433
a(I55
I55
I0
tp2434
a(I58
I99
I41
tp2435
a(I0
I0
I0
tp2436
a(I0
I0
I0
tp2437
a(I0
I0
I0
tp2438
a(I0
I0
I0
tp2439
a(I48
I97
I49
tp2440
a(I155
I215
I60
tp2441
a(I35
I35
I0
tp2442
a(I0
I0
I0
tp2443
a(I0
I0
I0
tp2444
a(I38
I104
I66
tp2445
a(I0
I0
I0
tp2446
a(I0
I0
I0
tp2447
a(I141
I233
I92
tp2448
a(I1
I38
I37
tp2449
a(I27
I104
I77
tp2450
a(I0
I0
I0
tp2451
a(I1
I45
I44
tp2452
a(I64
I139
I75
tp2453
a(I1
I83
I82
tp2454
a(I1
I31
I30
tp2455
a(I1
I35
I34
tp2456
a(I0
I0
I0
tp2457
a(I1
I22
I21
tp2458
a(I1
I25
I24
tp2459
a(I71
I117
I46
tp2460
a(I45
I77
I32
tp2461
a(I44
I86
I42
tp2462
a(I1
I17
I16
tp2463
a(I111
I148
I37
tp2464
a(I1
I148
I147
tp2465
a(I10
I78
I68
tp2466
a(I41
I123
I82
tp2467
a(I70
I148
I78
tp2468
a(I14
I76
I62
tp2469
a(I0
I0
I0
tp2470
a(I0
I0
I0
tp2471
a(I0
I0
I0
tp2472
a(I0
I0
I0
tp2473
a(I0
I0
I0
tp2474
a(I0
I0
I0
tp2475
a(I0
I0
I0
tp2476
a(I0
I0
I0
tp2477
a(I0
I0
I0
tp2478
a(I0
I0
I0
tp2479
a(I58
I174
I116
tp2480
a(I10
I121
I111
tp2481
a(I1
I36
I35
tp2482
a(I30
I71
I41
tp2483
a(I43
I106
I63
tp2484
a(I13
I51
I38
tp2485
a(I0
I0
I0
tp2486
a(I0
I0
I0
tp2487
a(I12
I49
I37
tp2488
a(I1
I63
I62
tp2489
a(I41
I76
I35
tp2490
a(I0
I0
I0
tp2491
a(I35
I114
I79
tp2492
a(I47
I94
I47
tp2493
a(I0
I0
I0
tp2494
a(I0
I0
I0
tp2495
a(I0
I0
I0
tp2496
a(I19
I65
I46
tp2497
a(I72
I85
I13
tp2498
a(I0
I0
I0
tp2499
a(I1
I46
I45
tp2500
a(I0
I0
I0
tp2501
a(I0
I0
I0
tp2502
a(I85
I167
I82
tp2503
a(I9
I45
I36
tp2504
a(I1
I25
I24
tp2505
a(I0
I0
I0
tp2506
a(I74
I100
I26
tp2507
a(I0
I0
I0
tp2508
a(I54
I170
I116
tp2509
a(I0
I0
I0
tp2510
a(I28
I148
I120
tp2511
a(I10
I118
I108
tp2512
a(I0
I0
I0
tp2513
a(I0
I0
I0
tp2514
a(I19
I76
I57
tp2515
a(I4
I64
I60
tp2516
a(I0
I0
I0
tp2517
a(I0
I0
I0
tp2518
a(I7
I93
I86
tp2519
a(I87
I87
I0
tp2520
a(I0
I0
I0
tp2521
a(I117
I128
I11
tp2522
a(I116
I145
I29
tp2523
a(I0
I0
I0
tp2524
a(I0
I0
I0
tp2525
a(I0
I0
I0
tp2526
a(I59
I87
I28
tp2527
a(I1
I19
I18
tp2528
a(I91
I114
I23
tp2529
a(I99
I143
I44
tp2530
a(I0
I0
I0
tp2531
a(I35
I106
I71
tp2532
a(I0
I0
I0
tp2533
a(I0
I0
I0
tp2534
a(I0
I0
I0
tp2535
a(I28
I58
I30
tp2536
a(I0
I0
I0
tp2537
a(I9
I77
I68
tp2538
a(I140
I175
I35
tp2539
a(I1
I96
I95
tp2540
a(I1
I1
I0
tp2541
a(I0
I0
I0
tp2542
a(I0
I0
I0
tp2543
a(I157
I243
I86
tp2544
a(I5
I52
I47
tp2545
a(I127
I153
I26
tp2546
a(I0
I0
I0
tp2547
a(I0
I0
I0
tp2548
a(I40
I143
I103
tp2549
a(I68
I93
I25
tp2550
a(I0
I0
I0
tp2551
a(I0
I0
I0
tp2552
a(I0
I0
I0
tp2553
a(I30
I131
I101
tp2554
a(I89
I127
I38
tp2555
a(I0
I0
I0
tp2556
a(I0
I0
I0
tp2557
a(I0
I0
I0
tp2558
a(I73
I194
I121
tp2559
a(I0
I0
I0
tp2560
a(I1
I109
I108
tp2561
a(I1
I1
I0
tp2562
a(I1
I65
I64
tp2563
a(I47
I154
I107
tp2564
a(I0
I0
I0
tp2565
a(I29
I88
I59
tp2566
a(I161
I161
I0
tp2567
a(I74
I178
I104
tp2568
a(I0
I0
I0
tp2569
a(I0
I0
I0
tp2570
a(I0
I0
I0
tp2571
a(I0
I0
I0
tp2572
a(I0
I0
I0
tp2573
a(I0
I0
I0
tp2574
a(I42
I123
I81
tp2575
a(I22
I196
I174
tp2576
a(I54
I133
I79
tp2577
a(I56
I56
I0
tp2578
a(I147
I194
I47
tp2579
a(I0
I0
I0
tp2580
a(I42
I120
I78
tp2581
a(I20
I47
I27
tp2582
a(I52
I91
I39
tp2583
a(I0
I0
I0
tp2584
a(I117
I166
I49
tp2585
a(I73
I153
I80
tp2586
a(I0
I0
I0
tp2587
a(I10
I29
I19
tp2588
a(I1
I52
I51
tp2589
a(I0
I0
I0
tp2590
a(I8
I89
I81
tp2591
a(I0
I0
I0
tp2592
a(I0
I0
I0
tp2593
a(I1
I60
I59
tp2594
a(I14
I34
I20
tp2595
a(I133
I172
I39
tp2596
a(I0
I0
I0
tp2597
a(I70
I178
I108
tp2598
a(I1
I81
I80
tp2599
a(I54
I103
I49
tp2600
a(I1
I70
I69
tp2601
a(I0
I0
I0
tp2602
a(I29
I64
I35
tp2603
a(I0
I0
I0
tp2604
a(I79
I127
I48
tp2605
a(I91
I127
I36
tp2606
a(I0
I0
I0
tp2607
a(I0
I0
I0
tp2608
a(I0
I0
I0
tp2609
a(I60
I82
I22
tp2610
a(I77
I92
I15
tp2611
a(I0
I0
I0
tp2612
a(I12
I38
I26
tp2613
a(I31
I70
I39
tp2614
a(I63
I110
I47
tp2615
a(I65
I88
I23
tp2616
a(I0
I0
I0
tp2617
a(I0
I0
I0
tp2618
a(I45
I76
I31
tp2619
a(I34
I60
I26
tp2620
a(I0
I0
I0
tp2621
a(I0
I0
I0
tp2622
a(I98
I133
I35
tp2623
a(I0
I0
I0
tp2624
a(I32
I65
I33
tp2625
a(I0
I0
I0
tp2626
a(I0
I0
I0
tp2627
a(I0
I0
I0
tp2628
a(I1
I181
I180
tp2629
a(I0
I0
I0
tp2630
a(I0
I0
I0
tp2631
a(I0
I0
I0
tp2632
a(I0
I0
I0
tp2633
a(I0
I0
I0
tp2634
a(I232
I266
I34
tp2635
a(I0
I0
I0
tp2636
a(I53
I72
I19
tp2637
a(I0
I0
I0
tp2638
a(I0
I0
I0
tp2639
a(I49
I71
I22
tp2640
a(I20
I55
I35
tp2641
a(I1
I17
I16
tp2642
a(I58
I85
I27
tp2643
a(I1
I36
I35
tp2644
a(I38
I117
I79
tp2645
a(I72
I99
I27
tp2646
a(I0
I0
I0
tp2647
a(I0
I0
I0
tp2648
a(I94
I148
I54
tp2649
a(I2
I130
I128
tp2650
a(I0
I0
I0
tp2651
a(I299
I325
I26
tp2652
a(I1
I36
I35
tp2653
a(I0
I0
I0
tp2654
a(I29
I49
I20
tp2655
a(I0
I0
I0
tp2656
a(I31
I63
I32
tp2657
a(I12
I31
I19
tp2658
a(I9
I71
I62
tp2659
a(I1
I50
I49
tp2660
a(I25
I50
I25
tp2661
a(I79
I98
I19
tp2662
a(I0
I0
I0
tp2663
a(I0
I0
I0
tp2664
a(I0
I0
I0
tp2665
a(I118
I138
I20
tp2666
a(I11
I21
I10
tp2667
a(I228
I265
I37
tp2668
a(I0
I0
I0
tp2669
a(I0
I0
I0
tp2670
a(I0
I0
I0
tp2671
a(I0
I0
I0
tp2672
a(I9
I32
I23
tp2673
a(I0
I0
I0
tp2674
a(I0
I0
I0
tp2675
a(I79
I119
I40
tp2676
a(I0
I0
I0
tp2677
a(I1
I16
I15
tp2678
a(I0
I0
I0
tp2679
a(I25
I54
I29
tp2680
a(I1
I69
I68
tp2681
a(I0
I0
I0
tp2682
a(I0
I0
I0
tp2683
a(I0
I0
I0
tp2684
a(I30
I79
I49
tp2685
a(I0
I0
I0
tp2686
a(I65
I107
I42
tp2687
a(I0
I0
I0
tp2688
a(I66
I113
I47
tp2689
a(I0
I0
I0
tp2690
a(I2
I28
I26
tp2691
a(I110
I156
I46
tp2692
a(I72
I90
I18
tp2693
a(I0
I0
I0
tp2694
a(I0
I0
I0
tp2695
a(I1
I32
I31
tp2696
a(I0
I0
I0
tp2697
a(I1
I18
I17
tp2698
a(I0
I0
I0
tp2699
a(I11
I29
I18
tp2700
a(I104
I147
I43
tp2701
a(I0
I0
I0
tp2702
a(I0
I0
I0
tp2703
a(I185
I209
I24
tp2704
a(I26
I72
I46
tp2705
a(I43
I61
I18
tp2706
a(I55
I86
I31
tp2707
a(I140
I167
I27
tp2708
a(I0
I0
I0
tp2709
a(I103
I133
I30
tp2710
a(I36
I83
I47
tp2711
a(I41
I100
I59
tp2712
a(I10
I55
I45
tp2713
a(I17
I49
I32
tp2714
a(I13
I31
I18
tp2715
a(I23
I48
I25
tp2716
a(I0
I0
I0
tp2717
a(I1
I81
I80
tp2718
a(I24
I24
I0
tp2719
a(I1
I28
I27
tp2720
a(I39
I64
I25
tp2721
a(I24
I43
I19
tp2722
a(I129
I149
I20
tp2723
a(I25
I57
I32
tp2724
a(I48
I70
I22
tp2725
a(I78
I100
I22
tp2726
a(I27
I51
I24
tp2727
a(I214
I225
I11
tp2728
a(I36
I54
I18
tp2729
a(I38
I86
I48
tp2730
a(I82
I114
I32
tp2731
a(I0
I0
I0
tp2732
a(I138
I174
I36
tp2733
a(I387
I444
I57
tp2734
a(I1
I16
I15
tp2735
a(I0
I0
I0
tp2736
a(I1
I26
I25
tp2737
a(I0
I0
I0
tp2738
a(I37
I66
I29
tp2739
a(I1
I24
I23
tp2740
a(I31
I51
I20
tp2741
a(I1
I107
I106
tp2742
a(I65
I90
I25
tp2743
atp2744
a(S'catch'
(lp2745
(I0
I0
I0
tp2746
a(I0
I0
I0
tp2747
a(I0
I0
I0
tp2748
a(I118
I158
I40
tp2749
a(I132
I150
I18
tp2750
a(I56
I56
I0
tp2751
a(I0
I0
I0
tp2752
a(I0
I0
I0
tp2753
a(I0
I0
I0
tp2754
a(I0
I0
I0
tp2755
a(I0
I0
I0
tp2756
a(I0
I0
I0
tp2757
a(I0
I0
I0
tp2758
a(I0
I0
I0
tp2759
a(I0
I0
I0
tp2760
a(I0
I0
I0
tp2761
a(I0
I0
I0
tp2762
a(I0
I0
I0
tp2763
a(I0
I0
I0
tp2764
a(I0
I0
I0
tp2765
a(I0
I0
I0
tp2766
a(I0
I0
I0
tp2767
a(I0
I0
I0
tp2768
a(I0
I0
I0
tp2769
a(I0
I0
I0
tp2770
a(I0
I0
I0
tp2771
a(I0
I0
I0
tp2772
a(I0
I0
I0
tp2773
a(I0
I0
I0
tp2774
a(I0
I0
I0
tp2775
a(I0
I0
I0
tp2776
a(I0
I0
I0
tp2777
a(I0
I0
I0
tp2778
a(I0
I0
I0
tp2779
a(I0
I0
I0
tp2780
a(I0
I0
I0
tp2781
a(I0
I0
I0
tp2782
a(I0
I0
I0
tp2783
a(I0
I0
I0
tp2784
a(I0
I0
I0
tp2785
a(I0
I0
I0
tp2786
a(I0
I0
I0
tp2787
a(I0
I0
I0
tp2788
a(I0
I0
I0
tp2789
a(I0
I0
I0
tp2790
a(I0
I0
I0
tp2791
a(I0
I0
I0
tp2792
a(I0
I0
I0
tp2793
a(I0
I0
I0
tp2794
a(I0
I0
I0
tp2795
a(I0
I0
I0
tp2796
a(I0
I0
I0
tp2797
a(I0
I0
I0
tp2798
a(I0
I0
I0
tp2799
a(I0
I0
I0
tp2800
a(I0
I0
I0
tp2801
a(I0
I0
I0
tp2802
a(I0
I0
I0
tp2803
a(I0
I0
I0
tp2804
a(I0
I0
I0
tp2805
a(I0
I0
I0
tp2806
a(I0
I0
I0
tp2807
a(I0
I0
I0
tp2808
a(I0
I0
I0
tp2809
a(I0
I0
I0
tp2810
a(I0
I0
I0
tp2811
a(I0
I0
I0
tp2812
a(I0
I0
I0
tp2813
a(I0
I0
I0
tp2814
a(I0
I0
I0
tp2815
a(I0
I0
I0
tp2816
a(I0
I0
I0
tp2817
a(I0
I0
I0
tp2818
a(I0
I0
I0
tp2819
a(I0
I0
I0
tp2820
a(I0
I0
I0
tp2821
a(I0
I0
I0
tp2822
a(I0
I0
I0
tp2823
a(I0
I0
I0
tp2824
a(I0
I0
I0
tp2825
a(I0
I0
I0
tp2826
a(I0
I0
I0
tp2827
a(I0
I0
I0
tp2828
a(I0
I0
I0
tp2829
a(I0
I0
I0
tp2830
a(I0
I0
I0
tp2831
a(I0
I0
I0
tp2832
a(I0
I0
I0
tp2833
a(I0
I0
I0
tp2834
a(I0
I0
I0
tp2835
a(I0
I0
I0
tp2836
a(I0
I0
I0
tp2837
a(I0
I0
I0
tp2838
a(I0
I0
I0
tp2839
a(I0
I0
I0
tp2840
a(I0
I0
I0
tp2841
a(I0
I0
I0
tp2842
a(I0
I0
I0
tp2843
a(I0
I0
I0
tp2844
a(I0
I0
I0
tp2845
a(I0
I0
I0
tp2846
a(I0
I0
I0
tp2847
a(I0
I0
I0
tp2848
a(I0
I0
I0
tp2849
a(I0
I0
I0
tp2850
a(I0
I0
I0
tp2851
a(I0
I0
I0
tp2852
a(I0
I0
I0
tp2853
a(I0
I0
I0
tp2854
atp2855
a(S'climb'
(lp2856
(I0
I0
I0
tp2857
a(I0
I0
I0
tp2858
a(I0
I0
I0
tp2859
a(I0
I0
I0
tp2860
a(I0
I0
I0
tp2861
a(I0
I0
I0
tp2862
a(I0
I0
I0
tp2863
a(I0
I0
I0
tp2864
a(I0
I0
I0
tp2865
a(I0
I0
I0
tp2866
a(I0
I0
I0
tp2867
a(I0
I0
I0
tp2868
a(I0
I0
I0
tp2869
a(I0
I0
I0
tp2870
a(I0
I0
I0
tp2871
a(I0
I0
I0
tp2872
a(I0
I0
I0
tp2873
a(I0
I0
I0
tp2874
a(I0
I0
I0
tp2875
a(I0
I0
I0
tp2876
a(I0
I0
I0
tp2877
a(I0
I0
I0
tp2878
a(I0
I0
I0
tp2879
a(I0
I0
I0
tp2880
a(I0
I0
I0
tp2881
a(I0
I0
I0
tp2882
a(I0
I0
I0
tp2883
a(I0
I0
I0
tp2884
a(I0
I0
I0
tp2885
a(I0
I0
I0
tp2886
a(I0
I0
I0
tp2887
a(I0
I0
I0
tp2888
a(I0
I0
I0
tp2889
a(I0
I0
I0
tp2890
a(I0
I0
I0
tp2891
a(I0
I0
I0
tp2892
a(I0
I0
I0
tp2893
a(I0
I0
I0
tp2894
a(I0
I0
I0
tp2895
a(I0
I0
I0
tp2896
a(I0
I0
I0
tp2897
a(I0
I0
I0
tp2898
a(I0
I0
I0
tp2899
a(I0
I0
I0
tp2900
a(I0
I0
I0
tp2901
a(I0
I0
I0
tp2902
a(I0
I0
I0
tp2903
a(I0
I0
I0
tp2904
a(I0
I0
I0
tp2905
a(I0
I0
I0
tp2906
a(I0
I0
I0
tp2907
a(I0
I0
I0
tp2908
a(I0
I0
I0
tp2909
a(I0
I0
I0
tp2910
a(I0
I0
I0
tp2911
a(I0
I0
I0
tp2912
a(I0
I0
I0
tp2913
a(I0
I0
I0
tp2914
a(I0
I0
I0
tp2915
a(I0
I0
I0
tp2916
a(I0
I0
I0
tp2917
a(I0
I0
I0
tp2918
a(I0
I0
I0
tp2919
a(I0
I0
I0
tp2920
a(I0
I0
I0
tp2921
a(I0
I0
I0
tp2922
a(I0
I0
I0
tp2923
a(I0
I0
I0
tp2924
a(I0
I0
I0
tp2925
a(I0
I0
I0
tp2926
a(I0
I0
I0
tp2927
a(I0
I0
I0
tp2928
a(I0
I0
I0
tp2929
a(I0
I0
I0
tp2930
a(I0
I0
I0
tp2931
a(I0
I0
I0
tp2932
a(I0
I0
I0
tp2933
a(I0
I0
I0
tp2934
a(I0
I0
I0
tp2935
a(I0
I0
I0
tp2936
a(I0
I0
I0
tp2937
a(I0
I0
I0
tp2938
a(I0
I0
I0
tp2939
a(I0
I0
I0
tp2940
a(I0
I0
I0
tp2941
a(I0
I0
I0
tp2942
a(I0
I0
I0
tp2943
a(I0
I0
I0
tp2944
a(I0
I0
I0
tp2945
a(I0
I0
I0
tp2946
a(I0
I0
I0
tp2947
a(I0
I0
I0
tp2948
a(I0
I0
I0
tp2949
a(I0
I0
I0
tp2950
a(I0
I0
I0
tp2951
a(I0
I0
I0
tp2952
a(I0
I0
I0
tp2953
a(I0
I0
I0
tp2954
a(I0
I0
I0
tp2955
a(I0
I0
I0
tp2956
a(I0
I0
I0
tp2957
a(I0
I0
I0
tp2958
a(I0
I0
I0
tp2959
a(I0
I0
I0
tp2960
a(I0
I0
I0
tp2961
a(I0
I0
I0
tp2962
a(I0
I0
I0
tp2963
a(I0
I0
I0
tp2964
a(I0
I0
I0
tp2965
a(I0
I0
I0
tp2966
a(I0
I0
I0
tp2967
a(I0
I0
I0
tp2968
a(I0
I0
I0
tp2969
a(I0
I0
I0
tp2970
a(I0
I0
I0
tp2971
a(I0
I0
I0
tp2972
a(I0
I0
I0
tp2973
a(I0
I0
I0
tp2974
a(I0
I0
I0
tp2975
a(I0
I0
I0
tp2976
a(I0
I0
I0
tp2977
a(I0
I0
I0
tp2978
a(I0
I0
I0
tp2979
a(I0
I0
I0
tp2980
a(I0
I0
I0
tp2981
a(I0
I0
I0
tp2982
a(I0
I0
I0
tp2983
a(I0
I0
I0
tp2984
a(I0
I0
I0
tp2985
a(I0
I0
I0
tp2986
a(I0
I0
I0
tp2987
a(I0
I0
I0
tp2988
a(I0
I0
I0
tp2989
a(I0
I0
I0
tp2990
a(I0
I0
I0
tp2991
a(I0
I0
I0
tp2992
a(I0
I0
I0
tp2993
a(I0
I0
I0
tp2994
a(I0
I0
I0
tp2995
a(I0
I0
I0
tp2996
a(I0
I0
I0
tp2997
a(I0
I0
I0
tp2998
a(I0
I0
I0
tp2999
a(I0
I0
I0
tp3000
a(I0
I0
I0
tp3001
a(I0
I0
I0
tp3002
a(I0
I0
I0
tp3003
a(I0
I0
I0
tp3004
a(I0
I0
I0
tp3005
atp3006
a(S'crouch'
(lp3007
(I0
I0
I0
tp3008
a(I33
I75
I42
tp3009
a(I65
I105
I40
tp3010
a(I85
I120
I35
tp3011
a(I82
I96
I14
tp3012
a(I102
I169
I67
tp3013
a(I131
I157
I26
tp3014
a(I359
I359
I0
tp3015
a(I16
I69
I53
tp3016
a(I0
I0
I0
tp3017
a(I0
I0
I0
tp3018
a(I114
I127
I13
tp3019
a(I0
I0
I0
tp3020
a(I0
I0
I0
tp3021
a(I282
I297
I15
tp3022
a(I255
I276
I21
tp3023
a(I5
I33
I28
tp3024
a(I0
I0
I0
tp3025
a(I0
I0
I0
tp3026
a(I102
I160
I58
tp3027
a(I0
I0
I0
tp3028
a(I131
I184
I53
tp3029
a(I0
I0
I0
tp3030
a(I16
I73
I57
tp3031
a(I0
I0
I0
tp3032
a(I0
I0
I0
tp3033
a(I0
I0
I0
tp3034
a(I80
I92
I12
tp3035
a(I268
I278
I10
tp3036
a(I18
I39
I21
tp3037
a(I36
I46
I10
tp3038
a(I0
I0
I0
tp3039
a(I0
I0
I0
tp3040
a(I0
I0
I0
tp3041
a(I0
I0
I0
tp3042
a(I0
I0
I0
tp3043
a(I0
I0
I0
tp3044
a(I43
I64
I21
tp3045
a(I0
I0
I0
tp3046
a(I96
I145
I49
tp3047
a(I94
I125
I31
tp3048
a(I0
I0
I0
tp3049
a(I0
I0
I0
tp3050
a(I142
I155
I13
tp3051
a(I0
I0
I0
tp3052
a(I96
I100
I4
tp3053
a(I0
I0
I0
tp3054
a(I0
I0
I0
tp3055
a(I0
I0
I0
tp3056
a(I153
I172
I19
tp3057
a(I121
I146
I25
tp3058
a(I0
I0
I0
tp3059
a(I0
I0
I0
tp3060
a(I63
I78
I15
tp3061
a(I22
I51
I29
tp3062
a(I231
I276
I45
tp3063
a(I88
I119
I31
tp3064
a(I0
I0
I0
tp3065
a(I227
I240
I13
tp3066
a(I133
I143
I10
tp3067
a(I22
I63
I41
tp3068
a(I0
I0
I0
tp3069
a(I26
I86
I60
tp3070
a(I130
I147
I17
tp3071
a(I56
I77
I21
tp3072
a(I47
I64
I17
tp3073
a(I0
I0
I0
tp3074
a(I0
I0
I0
tp3075
a(I66
I80
I14
tp3076
a(I44
I86
I42
tp3077
a(I53
I75
I22
tp3078
a(I0
I0
I0
tp3079
atp3080
a(S'crowd'
(lp3081
(I64
I149
I85
tp3082
a(I0
I0
I0
tp3083
a(I61
I114
I53
tp3084
a(I197
I267
I70
tp3085
a(I111
I138
I27
tp3086
a(I37
I37
I0
tp3087
a(I58
I92
I34
tp3088
a(I32
I110
I78
tp3089
a(I0
I0
I0
tp3090
a(I30
I94
I64
tp3091
a(I36
I99
I63
tp3092
a(I0
I0
I0
tp3093
a(I85
I114
I29
tp3094
a(I0
I0
I0
tp3095
a(I0
I0
I0
tp3096
a(I124
I131
I7
tp3097
a(I38
I95
I57
tp3098
a(I137
I213
I76
tp3099
a(I52
I95
I43
tp3100
a(I58
I143
I85
tp3101
a(I50
I83
I33
tp3102
a(I78
I116
I38
tp3103
a(I157
I182
I25
tp3104
a(I0
I0
I0
tp3105
a(I55
I146
I91
tp3106
a(I156
I212
I56
tp3107
a(I198
I220
I22
tp3108
a(I163
I253
I90
tp3109
a(I72
I114
I42
tp3110
a(I0
I0
I0
tp3111
a(I17
I47
I30
tp3112
a(I28
I116
I88
tp3113
a(I0
I0
I0
tp3114
a(I119
I134
I15
tp3115
a(I62
I86
I24
tp3116
a(I0
I0
I0
tp3117
a(I0
I0
I0
tp3118
a(I97
I119
I22
tp3119
a(I0
I0
I0
tp3120
a(I0
I0
I0
tp3121
a(I0
I0
I0
tp3122
a(I0
I0
I0
tp3123
a(I40
I109
I69
tp3124
a(I38
I113
I75
tp3125
a(I119
I122
I3
tp3126
a(I0
I0
I0
tp3127
a(I151
I192
I41
tp3128
a(I216
I216
I0
tp3129
a(I158
I216
I58
tp3130
a(I15
I42
I27
tp3131
a(I61
I116
I55
tp3132
a(I147
I151
I4
tp3133
a(I51
I123
I72
tp3134
atp3135
a(S'drive'
(lp3136
(I28
I62
I34
tp3137
a(I211
I269
I58
tp3138
a(I0
I0
I0
tp3139
a(I46
I69
I23
tp3140
a(I40
I79
I39
tp3141
a(I0
I0
I0
tp3142
a(I0
I0
I0
tp3143
a(I23
I77
I54
tp3144
a(I37
I49
I12
tp3145
a(I23
I56
I33
tp3146
a(I30
I74
I44
tp3147
a(I0
I0
I0
tp3148
a(I124
I177
I53
tp3149
a(I37
I99
I62
tp3150
a(I0
I0
I0
tp3151
a(I47
I82
I35
tp3152
a(I31
I114
I83
tp3153
a(I0
I0
I0
tp3154
a(I240
I244
I4
tp3155
a(I46
I102
I56
tp3156
a(I0
I0
I0
tp3157
a(I0
I0
I0
tp3158
a(I25
I46
I21
tp3159
a(I116
I157
I41
tp3160
a(I37
I71
I34
tp3161
a(I19
I36
I17
tp3162
a(I48
I100
I52
tp3163
a(I0
I0
I0
tp3164
a(I0
I0
I0
tp3165
a(I0
I0
I0
tp3166
a(I115
I129
I14
tp3167
a(I45
I62
I17
tp3168
a(I24
I55
I31
tp3169
a(I0
I0
I0
tp3170
a(I31
I129
I98
tp3171
a(I0
I0
I0
tp3172
a(I33
I142
I109
tp3173
a(I0
I0
I0
tp3174
a(I59
I83
I24
tp3175
a(I0
I0
I0
tp3176
a(I62
I115
I53
tp3177
a(I0
I0
I0
tp3178
a(I29
I66
I37
tp3179
a(I29
I76
I47
tp3180
a(I24
I66
I42
tp3181
a(I0
I0
I0
tp3182
a(I85
I119
I34
tp3183
a(I151
I171
I20
tp3184
a(I89
I168
I79
tp3185
a(I0
I0
I0
tp3186
a(I0
I0
I0
tp3187
a(I176
I184
I8
tp3188
a(I37
I56
I19
tp3189
a(I26
I61
I35
tp3190
a(I257
I324
I67
tp3191
a(I38
I38
I0
tp3192
a(I21
I57
I36
tp3193
a(I0
I0
I0
tp3194
a(I60
I93
I33
tp3195
a(I0
I0
I0
tp3196
a(I0
I0
I0
tp3197
a(I28
I78
I50
tp3198
a(I0
I0
I0
tp3199
a(I91
I148
I57
tp3200
a(I37
I77
I40
tp3201
a(I18
I84
I66
tp3202
a(I18
I18
I0
tp3203
a(I69
I101
I32
tp3204
a(I0
I0
I0
tp3205
a(I115
I253
I138
tp3206
a(I205
I205
I0
tp3207
a(I39
I39
I0
tp3208
a(I0
I0
I0
tp3209
a(I95
I139
I44
tp3210
a(I60
I109
I49
tp3211
a(I25
I77
I52
tp3212
a(I0
I0
I0
tp3213
a(I0
I0
I0
tp3214
a(I35
I94
I59
tp3215
a(I25
I75
I50
tp3216
a(I50
I86
I36
tp3217
a(I18
I77
I59
tp3218
a(I57
I57
I0
tp3219
a(I91
I125
I34
tp3220
a(I0
I0
I0
tp3221
a(I0
I0
I0
tp3222
a(I24
I125
I101
tp3223
a(I157
I199
I42
tp3224
a(I24
I61
I37
tp3225
a(I0
I0
I0
tp3226
a(I33
I60
I27
tp3227
a(I0
I0
I0
tp3228
a(I0
I0
I0
tp3229
a(I0
I0
I0
tp3230
a(I21
I61
I40
tp3231
a(I0
I0
I0
tp3232
a(I36
I90
I54
tp3233
a(I114
I114
I0
tp3234
a(I0
I0
I0
tp3235
a(I0
I0
I0
tp3236
a(I35
I99
I64
tp3237
a(I85
I96
I11
tp3238
a(I0
I0
I0
tp3239
a(I20
I65
I45
tp3240
a(I0
I0
I0
tp3241
a(I43
I93
I50
tp3242
a(I0
I0
I0
tp3243
a(I0
I0
I0
tp3244
a(I31
I82
I51
tp3245
a(I30
I85
I55
tp3246
a(I52
I52
I0
tp3247
a(I0
I0
I0
tp3248
a(I22
I64
I42
tp3249
a(I0
I0
I0
tp3250
a(I20
I71
I51
tp3251
a(I33
I64
I31
tp3252
a(I0
I0
I0
tp3253
a(I40
I100
I60
tp3254
a(I0
I0
I0
tp3255
a(I4
I4
I0
tp3256
a(I156
I156
I0
tp3257
a(I0
I0
I0
tp3258
a(I21
I34
I13
tp3259
a(I39
I69
I30
tp3260
a(I34
I65
I31
tp3261
a(I47
I47
I0
tp3262
a(I0
I0
I0
tp3263
a(I0
I0
I0
tp3264
a(I0
I0
I0
tp3265
a(I69
I109
I40
tp3266
a(I0
I0
I0
tp3267
a(I105
I123
I18
tp3268
a(I82
I117
I35
tp3269
a(I24
I75
I51
tp3270
a(I97
I100
I3
tp3271
atp3272
a(S'fire'
(lp3273
(I74
I86
I12
tp3274
a(I80
I96
I16
tp3275
a(I0
I0
I0
tp3276
a(I39
I59
I20
tp3277
a(I195
I202
I7
tp3278
a(I9
I12
I3
tp3279
a(I6
I12
I6
tp3280
a(I0
I0
I0
tp3281
a(I0
I0
I0
tp3282
a(I0
I0
I0
tp3283
a(I11
I57
I46
tp3284
a(I122
I135
I13
tp3285
a(I50
I72
I22
tp3286
a(I112
I129
I17
tp3287
a(I169
I199
I30
tp3288
a(I56
I56
I0
tp3289
a(I101
I123
I22
tp3290
a(I134
I149
I15
tp3291
a(I79
I79
I0
tp3292
a(I0
I0
I0
tp3293
a(I0
I0
I0
tp3294
a(I0
I0
I0
tp3295
a(I0
I0
I0
tp3296
a(I0
I0
I0
tp3297
a(I0
I0
I0
tp3298
a(I0
I0
I0
tp3299
a(I0
I0
I0
tp3300
a(I0
I0
I0
tp3301
a(I0
I0
I0
tp3302
a(I0
I0
I0
tp3303
a(I0
I0
I0
tp3304
a(I46
I85
I39
tp3305
a(I0
I0
I0
tp3306
a(I40
I50
I10
tp3307
a(I114
I128
I14
tp3308
a(I93
I93
I0
tp3309
a(I0
I0
I0
tp3310
a(I31
I40
I9
tp3311
a(I20
I74
I54
tp3312
a(I0
I0
I0
tp3313
a(I161
I169
I8
tp3314
a(I0
I0
I0
tp3315
a(I138
I138
I0
tp3316
a(I207
I207
I0
tp3317
a(I0
I0
I0
tp3318
a(I0
I0
I0
tp3319
a(I0
I0
I0
tp3320
a(I340
I346
I6
tp3321
a(I79
I89
I10
tp3322
a(I128
I154
I26
tp3323
a(I0
I0
I0
tp3324
a(I10
I36
I26
tp3325
a(I78
I78
I0
tp3326
a(I0
I0
I0
tp3327
a(I0
I0
I0
tp3328
a(I140
I192
I52
tp3329
a(I46
I67
I21
tp3330
a(I255
I278
I23
tp3331
a(I61
I86
I25
tp3332
a(I20
I34
I14
tp3333
a(I0
I0
I0
tp3334
a(I0
I0
I0
tp3335
a(I1
I1
I0
tp3336
a(I62
I86
I24
tp3337
a(I22
I22
I0
tp3338
a(I0
I0
I0
tp3339
a(I94
I108
I14
tp3340
a(I102
I120
I18
tp3341
a(I59
I71
I12
tp3342
a(I42
I49
I7
tp3343
a(I0
I0
I0
tp3344
a(I0
I0
I0
tp3345
a(I9
I16
I7
tp3346
a(I24
I29
I5
tp3347
a(I94
I109
I15
tp3348
a(I78
I93
I15
tp3349
a(I130
I158
I28
tp3350
a(I125
I173
I48
tp3351
a(I113
I129
I16
tp3352
a(I149
I170
I21
tp3353
a(I190
I195
I5
tp3354
a(I57
I68
I11
tp3355
a(I130
I139
I9
tp3356
a(I47
I58
I11
tp3357
a(I0
I0
I0
tp3358
a(I18
I26
I8
tp3359
a(I43
I57
I14
tp3360
a(I55
I72
I17
tp3361
a(I1
I7
I6
tp3362
a(I69
I96
I27
tp3363
a(I140
I161
I21
tp3364
a(I18
I30
I12
tp3365
a(I38
I62
I24
tp3366
a(I108
I131
I23
tp3367
a(I53
I69
I16
tp3368
a(I0
I0
I0
tp3369
atp3370
a(S'glance'
(lp3371
(I105
I124
I19
tp3372
a(I24
I48
I24
tp3373
a(I47
I71
I24
tp3374
a(I1
I45
I44
tp3375
a(I1
I24
I23
tp3376
a(I0
I0
I0
tp3377
a(I5
I92
I87
tp3378
a(I96
I121
I25
tp3379
a(I26
I60
I34
tp3380
a(I86
I100
I14
tp3381
a(I43
I68
I25
tp3382
a(I45
I98
I53
tp3383
a(I0
I0
I0
tp3384
a(I120
I147
I27
tp3385
a(I195
I227
I32
tp3386
a(I0
I0
I0
tp3387
a(I0
I0
I0
tp3388
a(I0
I0
I0
tp3389
a(I5
I8
I3
tp3390
a(I0
I0
I0
tp3391
a(I0
I0
I0
tp3392
a(I4
I34
I30
tp3393
a(I0
I0
I0
tp3394
a(I29
I48
I19
tp3395
a(I0
I0
I0
tp3396
a(I0
I0
I0
tp3397
a(I184
I208
I24
tp3398
a(I0
I0
I0
tp3399
a(I0
I0
I0
tp3400
a(I8
I37
I29
tp3401
a(I103
I122
I19
tp3402
a(I153
I183
I30
tp3403
a(I180
I276
I96
tp3404
a(I0
I0
I0
tp3405
a(I0
I0
I0
tp3406
a(I200
I245
I45
tp3407
a(I57
I84
I27
tp3408
a(I18
I41
I23
tp3409
a(I159
I187
I28
tp3410
a(I131
I146
I15
tp3411
a(I70
I116
I46
tp3412
a(I48
I67
I19
tp3413
a(I4
I20
I16
tp3414
a(I63
I86
I23
tp3415
a(I0
I0
I0
tp3416
a(I126
I135
I9
tp3417
a(I118
I131
I13
tp3418
a(I11
I26
I15
tp3419
a(I61
I74
I13
tp3420
a(I0
I0
I0
tp3421
a(I59
I74
I15
tp3422
a(I25
I45
I20
tp3423
a(I43
I61
I18
tp3424
a(I27
I40
I13
tp3425
a(I7
I58
I51
tp3426
a(I54
I93
I39
tp3427
a(I89
I106
I17
tp3428
a(I65
I82
I17
tp3429
a(I9
I26
I17
tp3430
a(I6
I28
I22
tp3431
a(I35
I58
I23
tp3432
a(I33
I52
I19
tp3433
a(I5
I46
I41
tp3434
a(I11
I30
I19
tp3435
a(I0
I0
I0
tp3436
a(I2
I57
I55
tp3437
a(I15
I15
I0
tp3438
a(I42
I88
I46
tp3439
a(I27
I59
I32
tp3440
a(I38
I63
I25
tp3441
a(I0
I0
I0
tp3442
a(I263
I283
I20
tp3443
a(I56
I73
I17
tp3444
a(I149
I149
I0
tp3445
a(I0
I0
I0
tp3446
a(I0
I0
I0
tp3447
a(I3
I22
I19
tp3448
a(I6
I40
I34
tp3449
a(I6
I29
I23
tp3450
a(I46
I65
I19
tp3451
a(I46
I61
I15
tp3452
a(I30
I55
I25
tp3453
a(I58
I82
I24
tp3454
a(I15
I38
I23
tp3455
a(I160
I195
I35
tp3456
a(I59
I74
I15
tp3457
a(I36
I86
I50
tp3458
a(I26
I56
I30
tp3459
a(I54
I81
I27
tp3460
a(I101
I119
I18
tp3461
a(I56
I86
I30
tp3462
a(I27
I57
I30
tp3463
a(I137
I145
I8
tp3464
a(I0
I0
I0
tp3465
a(I1
I18
I17
tp3466
a(I31
I65
I34
tp3467
a(I99
I119
I20
tp3468
a(I0
I0
I0
tp3469
a(I64
I90
I26
tp3470
a(I104
I134
I30
tp3471
a(I0
I0
I0
tp3472
a(I70
I95
I25
tp3473
a(I21
I33
I12
tp3474
a(I94
I109
I15
tp3475
a(I50
I67
I17
tp3476
a(I74
I93
I19
tp3477
a(I1
I15
I14
tp3478
a(I54
I72
I18
tp3479
a(I11
I27
I16
tp3480
a(I0
I0
I0
tp3481
a(I27
I39
I12
tp3482
a(I49
I79
I30
tp3483
a(I27
I55
I28
tp3484
a(I114
I137
I23
tp3485
a(I0
I0
I0
tp3486
a(I0
I0
I0
tp3487
a(I73
I93
I20
tp3488
a(I83
I100
I17
tp3489
a(I150
I181
I31
tp3490
a(I131
I151
I20
tp3491
a(I10
I36
I26
tp3492
a(I7
I28
I21
tp3493
a(I49
I92
I43
tp3494
a(I28
I91
I63
tp3495
a(I66
I126
I60
tp3496
a(I44
I71
I27
tp3497
a(I0
I0
I0
tp3498
a(I34
I59
I25
tp3499
a(I149
I170
I21
tp3500
a(I74
I117
I43
tp3501
a(I59
I93
I34
tp3502
a(I138
I164
I26
tp3503
a(I72
I91
I19
tp3504
a(I9
I34
I25
tp3505
a(I137
I157
I20
tp3506
a(I61
I93
I32
tp3507
a(I123
I154
I31
tp3508
a(I23
I70
I47
tp3509
a(I26
I49
I23
tp3510
a(I1
I24
I23
tp3511
a(I0
I0
I0
tp3512
a(I1
I35
I34
tp3513
a(I7
I38
I31
tp3514
a(I21
I45
I24
tp3515
a(I0
I0
I0
tp3516
a(I105
I132
I27
tp3517
a(I83
I115
I32
tp3518
a(I19
I37
I18
tp3519
a(I67
I104
I37
tp3520
a(I11
I40
I29
tp3521
a(I107
I123
I16
tp3522
a(I67
I86
I19
tp3523
a(I46
I83
I37
tp3524
a(I28
I57
I29
tp3525
a(I12
I50
I38
tp3526
a(I3
I28
I25
tp3527
a(I126
I145
I19
tp3528
a(I2
I50
I48
tp3529
a(I33
I57
I24
tp3530
a(I9
I56
I47
tp3531
a(I133
I151
I18
tp3532
a(I44
I79
I35
tp3533
a(I0
I0
I0
tp3534
a(I0
I0
I0
tp3535
a(I47
I62
I15
tp3536
a(I11
I11
I0
tp3537
a(I1
I1
I0
tp3538
a(I1
I45
I44
tp3539
a(I0
I0
I0
tp3540
a(I7
I34
I27
tp3541
a(I6
I34
I28
tp3542
a(I1
I28
I27
tp3543
a(I116
I143
I27
tp3544
a(I0
I0
I0
tp3545
a(I0
I0
I0
tp3546
a(I67
I91
I24
tp3547
a(I1
I24
I23
tp3548
a(I0
I0
I0
tp3549
a(I9
I33
I24
tp3550
a(I0
I0
I0
tp3551
a(I70
I114
I44
tp3552
a(I0
I0
I0
tp3553
a(I82
I129
I47
tp3554
a(I100
I114
I14
tp3555
a(I107
I121
I14
tp3556
a(I389
I404
I15
tp3557
a(I0
I0
I0
tp3558
a(I0
I0
I0
tp3559
a(I0
I0
I0
tp3560
a(I68
I96
I28
tp3561
a(I4
I31
I27
tp3562
a(I6
I46
I40
tp3563
a(I32
I64
I32
tp3564
a(I0
I0
I0
tp3565
a(I103
I122
I19
tp3566
a(I0
I0
I0
tp3567
a(I4
I29
I25
tp3568
a(I54
I97
I43
tp3569
a(I22
I46
I24
tp3570
a(I38
I79
I41
tp3571
a(I0
I0
I0
tp3572
a(I66
I97
I31
tp3573
a(I24
I49
I25
tp3574
a(I0
I0
I0
tp3575
a(I0
I0
I0
tp3576
a(I0
I0
I0
tp3577
a(I43
I63
I20
tp3578
a(I0
I0
I0
tp3579
a(I0
I0
I0
tp3580
a(I23
I46
I23
tp3581
a(I65
I85
I20
tp3582
a(I97
I119
I22
tp3583
a(I0
I0
I0
tp3584
a(I0
I0
I0
tp3585
a(I10
I39
I29
tp3586
a(I11
I30
I19
tp3587
a(I66
I96
I30
tp3588
a(I223
I243
I20
tp3589
a(I99
I99
I0
tp3590
a(I84
I112
I28
tp3591
a(I70
I100
I30
tp3592
a(I0
I0
I0
tp3593
a(I57
I77
I20
tp3594
a(I5
I5
I0
tp3595
a(I37
I75
I38
tp3596
a(I16
I70
I54
tp3597
a(I54
I77
I23
tp3598
a(I45
I91
I46
tp3599
a(I0
I0
I0
tp3600
a(I41
I87
I46
tp3601
a(I3
I3
I0
tp3602
a(I62
I62
I0
tp3603
a(I149
I196
I47
tp3604
a(I54
I97
I43
tp3605
a(I132
I179
I47
tp3606
a(I0
I0
I0
tp3607
a(I0
I0
I0
tp3608
a(I12
I41
I29
tp3609
a(I12
I64
I52
tp3610
a(I46
I92
I46
tp3611
a(I0
I0
I0
tp3612
a(I11
I35
I24
tp3613
a(I34
I124
I90
tp3614
a(I0
I0
I0
tp3615
a(I0
I0
I0
tp3616
a(I1
I47
I46
tp3617
a(I117
I166
I49
tp3618
a(I155
I214
I59
tp3619
a(I0
I0
I0
tp3620
a(I1
I25
I24
tp3621
a(I1
I18
I17
tp3622
a(I0
I0
I0
tp3623
a(I0
I0
I0
tp3624
a(I1
I54
I53
tp3625
a(I1
I48
I47
tp3626
a(I40
I100
I60
tp3627
a(I26
I94
I68
tp3628
a(I116
I123
I7
tp3629
a(I82
I147
I65
tp3630
a(I1
I39
I38
tp3631
a(I1
I78
I77
tp3632
a(I2
I37
I35
tp3633
a(I29
I65
I36
tp3634
a(I1
I17
I16
tp3635
a(I1
I54
I53
tp3636
a(I3
I74
I71
tp3637
a(I3
I33
I30
tp3638
a(I25
I79
I54
tp3639
a(I0
I0
I0
tp3640
a(I0
I0
I0
tp3641
a(I0
I0
I0
tp3642
a(I23
I43
I20
tp3643
a(I53
I100
I47
tp3644
a(I138
I159
I21
tp3645
a(I4
I83
I79
tp3646
a(I91
I138
I47
tp3647
a(I77
I101
I24
tp3648
a(I1
I37
I36
tp3649
a(I18
I133
I115
tp3650
a(I101
I122
I21
tp3651
a(I0
I0
I0
tp3652
a(I84
I113
I29
tp3653
a(I100
I124
I24
tp3654
a(I1
I88
I87
tp3655
a(I1
I19
I18
tp3656
a(I31
I105
I74
tp3657
a(I0
I0
I0
tp3658
a(I85
I145
I60
tp3659
a(I1
I57
I56
tp3660
a(I0
I0
I0
tp3661
a(I8
I43
I35
tp3662
a(I10
I76
I66
tp3663
a(I6
I49
I43
tp3664
a(I59
I90
I31
tp3665
a(I0
I0
I0
tp3666
a(I1
I41
I40
tp3667
a(I35
I99
I64
tp3668
a(I79
I168
I89
tp3669
a(I45
I92
I47
tp3670
a(I69
I132
I63
tp3671
a(I38
I79
I41
tp3672
a(I0
I0
I0
tp3673
a(I16
I59
I43
tp3674
a(I31
I95
I64
tp3675
a(I124
I228
I104
tp3676
a(I0
I0
I0
tp3677
a(I95
I134
I39
tp3678
a(I13
I77
I64
tp3679
a(I1
I33
I32
tp3680
a(I66
I97
I31
tp3681
a(I68
I125
I57
tp3682
a(I82
I118
I36
tp3683
a(I64
I144
I80
tp3684
a(I38
I54
I16
tp3685
a(I28
I77
I49
tp3686
a(I18
I77
I59
tp3687
a(I32
I80
I48
tp3688
a(I39
I75
I36
tp3689
a(I59
I99
I40
tp3690
a(I23
I78
I55
tp3691
a(I82
I123
I41
tp3692
a(I99
I148
I49
tp3693
a(I26
I55
I29
tp3694
a(I0
I0
I0
tp3695
a(I137
I148
I11
tp3696
a(I1
I10
I9
tp3697
a(I159
I259
I100
tp3698
a(I3
I49
I46
tp3699
atp3700
a(S'hug'
(lp3701
(I37
I57
I20
tp3702
a(I70
I89
I19
tp3703
a(I0
I0
I0
tp3704
a(I0
I0
I0
tp3705
a(I0
I0
I0
tp3706
a(I33
I52
I19
tp3707
a(I76
I93
I17
tp3708
a(I15
I44
I29
tp3709
a(I45
I72
I27
tp3710
a(I1
I59
I58
tp3711
a(I33
I87
I54
tp3712
a(I12
I37
I25
tp3713
a(I97
I120
I23
tp3714
a(I40
I106
I66
tp3715
a(I0
I0
I0
tp3716
a(I1
I15
I14
tp3717
a(I69
I95
I26
tp3718
a(I0
I0
I0
tp3719
a(I1
I100
I99
tp3720
a(I27
I73
I46
tp3721
a(I11
I39
I28
tp3722
a(I1
I43
I42
tp3723
a(I1
I32
I31
tp3724
a(I53
I82
I29
tp3725
a(I55
I86
I31
tp3726
a(I1
I24
I23
tp3727
a(I79
I114
I35
tp3728
a(I87
I100
I13
tp3729
a(I1
I61
I60
tp3730
a(I32
I72
I40
tp3731
a(I1
I29
I28
tp3732
a(I1
I28
I27
tp3733
a(I18
I92
I74
tp3734
a(I54
I105
I51
tp3735
a(I0
I0
I0
tp3736
a(I33
I73
I40
tp3737
a(I30
I78
I48
tp3738
a(I17
I66
I49
tp3739
a(I55
I69
I14
tp3740
a(I1
I40
I39
tp3741
a(I0
I0
I0
tp3742
a(I0
I0
I0
tp3743
a(I14
I46
I32
tp3744
a(I82
I125
I43
tp3745
a(I5
I45
I40
tp3746
a(I1
I35
I34
tp3747
a(I1
I54
I53
tp3748
a(I100
I134
I34
tp3749
a(I0
I0
I0
tp3750
a(I6
I43
I37
tp3751
a(I0
I0
I0
tp3752
a(I189
I215
I26
tp3753
a(I6
I50
I44
tp3754
a(I0
I0
I0
tp3755
a(I4
I52
I48
tp3756
a(I0
I0
I0
tp3757
a(I74
I110
I36
tp3758
a(I49
I144
I95
tp3759
a(I64
I84
I20
tp3760
a(I1
I29
I28
tp3761
a(I66
I104
I38
tp3762
a(I30
I54
I24
tp3763
a(I1
I31
I30
tp3764
a(I1
I64
I63
tp3765
a(I10
I54
I44
tp3766
a(I83
I83
I0
tp3767
a(I47
I123
I76
tp3768
a(I46
I102
I56
tp3769
a(I1
I98
I97
tp3770
a(I1
I44
I43
tp3771
a(I22
I59
I37
tp3772
a(I0
I0
I0
tp3773
a(I0
I0
I0
tp3774
a(I0
I0
I0
tp3775
a(I0
I0
I0
tp3776
a(I1
I39
I38
tp3777
a(I1
I24
I23
tp3778
a(I11
I35
I24
tp3779
a(I51
I84
I33
tp3780
a(I5
I37
I32
tp3781
a(I1
I42
I41
tp3782
a(I1
I30
I29
tp3783
a(I1
I69
I68
tp3784
a(I8
I49
I41
tp3785
a(I46
I97
I51
tp3786
a(I17
I47
I30
tp3787
a(I10
I53
I43
tp3788
atp3789
a(S'jump'
(lp3790
(I1
I11
I10
tp3791
a(I51
I82
I31
tp3792
a(I76
I114
I38
tp3793
a(I36
I75
I39
tp3794
a(I0
I0
I0
tp3795
a(I110
I133
I23
tp3796
a(I0
I0
I0
tp3797
a(I114
I140
I26
tp3798
a(I1
I13
I12
tp3799
a(I103
I118
I15
tp3800
a(I0
I0
I0
tp3801
a(I373
I388
I15
tp3802
a(I0
I0
I0
tp3803
a(I0
I0
I0
tp3804
a(I0
I0
I0
tp3805
a(I0
I0
I0
tp3806
a(I69
I90
I21
tp3807
a(I94
I109
I15
tp3808
a(I141
I153
I12
tp3809
a(I30
I45
I15
tp3810
a(I188
I203
I15
tp3811
a(I152
I172
I20
tp3812
a(I0
I0
I0
tp3813
a(I26
I40
I14
tp3814
a(I10
I34
I24
tp3815
a(I0
I0
I0
tp3816
a(I39
I73
I34
tp3817
a(I1
I18
I17
tp3818
a(I8
I40
I32
tp3819
a(I119
I133
I14
tp3820
a(I37
I51
I14
tp3821
a(I54
I77
I23
tp3822
a(I6
I30
I24
tp3823
a(I5
I51
I46
tp3824
a(I10
I31
I21
tp3825
a(I0
I0
I0
tp3826
a(I0
I0
I0
tp3827
a(I143
I163
I20
tp3828
a(I0
I0
I0
tp3829
a(I1
I22
I21
tp3830
a(I0
I0
I0
tp3831
a(I0
I0
I0
tp3832
a(I1
I22
I21
tp3833
a(I0
I0
I0
tp3834
a(I37
I58
I21
tp3835
a(I43
I69
I26
tp3836
a(I0
I0
I0
tp3837
a(I0
I0
I0
tp3838
a(I1
I16
I15
tp3839
a(I34
I46
I12
tp3840
a(I0
I0
I0
tp3841
a(I154
I198
I44
tp3842
a(I57
I80
I23
tp3843
a(I87
I101
I14
tp3844
a(I14
I58
I44
tp3845
a(I0
I0
I0
tp3846
a(I0
I0
I0
tp3847
a(I0
I0
I0
tp3848
a(I88
I100
I12
tp3849
a(I0
I0
I0
tp3850
a(I6
I21
I15
tp3851
a(I0
I0
I0
tp3852
a(I21
I33
I12
tp3853
a(I0
I0
I0
tp3854
a(I0
I0
I0
tp3855
a(I20
I66
I46
tp3856
a(I0
I0
I0
tp3857
a(I0
I0
I0
tp3858
a(I0
I0
I0
tp3859
a(I0
I0
I0
tp3860
a(I49
I97
I48
tp3861
a(I84
I150
I66
tp3862
a(I26
I46
I20
tp3863
a(I65
I90
I25
tp3864
a(I0
I0
I0
tp3865
a(I84
I111
I27
tp3866
a(I13
I31
I18
tp3867
atp3868
a(S'kiss'
(lp3869
(I12
I12
I0
tp3870
a(I17
I40
I23
tp3871
a(I20
I49
I29
tp3872
a(I33
I75
I42
tp3873
a(I17
I61
I44
tp3874
a(I28
I55
I27
tp3875
a(I19
I51
I32
tp3876
a(I1
I9
I8
tp3877
a(I21
I54
I33
tp3878
a(I20
I46
I26
tp3879
a(I56
I79
I23
tp3880
a(I0
I0
I0
tp3881
a(I27
I42
I15
tp3882
a(I28
I50
I22
tp3883
a(I0
I0
I0
tp3884
a(I20
I49
I29
tp3885
a(I81
I124
I43
tp3886
a(I0
I0
I0
tp3887
a(I0
I0
I0
tp3888
a(I0
I0
I0
tp3889
a(I117
I117
I0
tp3890
a(I168
I195
I27
tp3891
a(I63
I63
I0
tp3892
a(I284
I307
I23
tp3893
a(I105
I124
I19
tp3894
a(I0
I0
I0
tp3895
a(I0
I0
I0
tp3896
a(I0
I0
I0
tp3897
a(I136
I147
I11
tp3898
a(I31
I61
I30
tp3899
a(I70
I98
I28
tp3900
a(I0
I0
I0
tp3901
a(I25
I76
I51
tp3902
a(I0
I0
I0
tp3903
a(I30
I59
I29
tp3904
a(I0
I0
I0
tp3905
a(I0
I0
I0
tp3906
a(I0
I0
I0
tp3907
a(I36
I56
I20
tp3908
a(I0
I0
I0
tp3909
a(I84
I122
I38
tp3910
a(I24
I57
I33
tp3911
a(I0
I0
I0
tp3912
a(I22
I22
I0
tp3913
a(I0
I0
I0
tp3914
a(I114
I124
I10
tp3915
a(I58
I89
I31
tp3916
a(I26
I68
I42
tp3917
a(I76
I89
I13
tp3918
a(I27
I43
I16
tp3919
a(I0
I0
I0
tp3920
a(I0
I0
I0
tp3921
a(I32
I50
I18
tp3922
a(I0
I0
I0
tp3923
a(I0
I0
I0
tp3924
a(I15
I27
I12
tp3925
a(I0
I0
I0
tp3926
a(I32
I71
I39
tp3927
a(I0
I0
I0
tp3928
a(I0
I0
I0
tp3929
a(I119
I133
I14
tp3930
a(I0
I0
I0
tp3931
a(I0
I0
I0
tp3932
a(I52
I116
I64
tp3933
a(I0
I0
I0
tp3934
a(I132
I166
I34
tp3935
a(I70
I111
I41
tp3936
a(I28
I59
I31
tp3937
a(I185
I193
I8
tp3938
a(I0
I0
I0
tp3939
a(I0
I0
I0
tp3940
a(I0
I0
I0
tp3941
a(I0
I0
I0
tp3942
a(I0
I0
I0
tp3943
a(I40
I67
I27
tp3944
a(I0
I0
I0
tp3945
a(I0
I0
I0
tp3946
a(I0
I0
I0
tp3947
a(I75
I104
I29
tp3948
a(I20
I53
I33
tp3949
a(I0
I0
I0
tp3950
a(I0
I0
I0
tp3951
a(I0
I0
I0
tp3952
a(I0
I0
I0
tp3953
a(I0
I0
I0
tp3954
a(I0
I0
I0
tp3955
a(I0
I0
I0
tp3956
a(I0
I0
I0
tp3957
a(I0
I0
I0
tp3958
a(I0
I0
I0
tp3959
a(I0
I0
I0
tp3960
a(I0
I0
I0
tp3961
a(I27
I68
I41
tp3962
a(I56
I123
I67
tp3963
a(I0
I0
I0
tp3964
a(I0
I0
I0
tp3965
a(I0
I0
I0
tp3966
a(I0
I0
I0
tp3967
a(I0
I0
I0
tp3968
a(I0
I0
I0
tp3969
a(I0
I0
I0
tp3970
a(I0
I0
I0
tp3971
a(I70
I114
I44
tp3972
a(I17
I39
I22
tp3973
a(I25
I40
I15
tp3974
a(I0
I0
I0
tp3975
a(I0
I0
I0
tp3976
a(I0
I0
I0
tp3977
a(I0
I0
I0
tp3978
a(I0
I0
I0
tp3979
a(I0
I0
I0
tp3980
a(I0
I0
I0
tp3981
a(I63
I78
I15
tp3982
a(I24
I41
I17
tp3983
a(I20
I39
I19
tp3984
a(I20
I36
I16
tp3985
a(I35
I59
I24
tp3986
a(I48
I55
I7
tp3987
a(I0
I0
I0
tp3988
a(I25
I46
I21
tp3989
a(I24
I35
I11
tp3990
a(I0
I0
I0
tp3991
a(I0
I0
I0
tp3992
a(I66
I85
I19
tp3993
a(I52
I95
I43
tp3994
a(I0
I0
I0
tp3995
a(I0
I0
I0
tp3996
a(I0
I0
I0
tp3997
a(I0
I0
I0
tp3998
a(I0
I0
I0
tp3999
a(I0
I0
I0
tp4000
a(I0
I0
I0
tp4001
a(I290
I333
I43
tp4002
a(I24
I44
I20
tp4003
a(I0
I0
I0
tp4004
a(I0
I0
I0
tp4005
a(I22
I68
I46
tp4006
a(I21
I102
I81
tp4007
a(I0
I0
I0
tp4008
a(I0
I0
I0
tp4009
a(I0
I0
I0
tp4010
a(I26
I71
I45
tp4011
a(I0
I0
I0
tp4012
a(I0
I0
I0
tp4013
a(I0
I0
I0
tp4014
a(I9
I9
I0
tp4015
a(I0
I0
I0
tp4016
a(I0
I0
I0
tp4017
a(I0
I0
I0
tp4018
a(I0
I0
I0
tp4019
a(I0
I0
I0
tp4020
a(I0
I0
I0
tp4021
a(I0
I0
I0
tp4022
a(I0
I0
I0
tp4023
a(I0
I0
I0
tp4024
a(I0
I0
I0
tp4025
a(I0
I0
I0
tp4026
a(I113
I127
I14
tp4027
a(I0
I0
I0
tp4028
a(I27
I39
I12
tp4029
a(I0
I0
I0
tp4030
a(I0
I0
I0
tp4031
a(I69
I111
I42
tp4032
a(I0
I0
I0
tp4033
a(I0
I0
I0
tp4034
a(I30
I88
I58
tp4035
a(I0
I0
I0
tp4036
a(I23
I55
I32
tp4037
a(I0
I0
I0
tp4038
a(I0
I0
I0
tp4039
a(I0
I0
I0
tp4040
a(I0
I0
I0
tp4041
a(I0
I0
I0
tp4042
a(I0
I0
I0
tp4043
a(I0
I0
I0
tp4044
a(I26
I67
I41
tp4045
a(I0
I0
I0
tp4046
a(I19
I76
I57
tp4047
a(I75
I91
I16
tp4048
a(I66
I74
I8
tp4049
a(I0
I0
I0
tp4050
a(I30
I70
I40
tp4051
a(I154
I189
I35
tp4052
a(I35
I92
I57
tp4053
a(I0
I0
I0
tp4054
a(I26
I46
I20
tp4055
a(I12
I36
I24
tp4056
a(I0
I0
I0
tp4057
a(I0
I0
I0
tp4058
a(I0
I0
I0
tp4059
a(I0
I0
I0
tp4060
a(I0
I0
I0
tp4061
a(I21
I21
I0
tp4062
a(I0
I0
I0
tp4063
a(I44
I56
I12
tp4064
a(I0
I0
I0
tp4065
a(I22
I59
I37
tp4066
a(I0
I0
I0
tp4067
a(I25
I25
I0
tp4068
a(I0
I0
I0
tp4069
a(I84
I120
I36
tp4070
a(I0
I0
I0
tp4071
a(I0
I0
I0
tp4072
a(I21
I57
I36
tp4073
a(I0
I0
I0
tp4074
a(I0
I0
I0
tp4075
a(I0
I0
I0
tp4076
a(I0
I0
I0
tp4077
a(I0
I0
I0
tp4078
a(I0
I0
I0
tp4079
a(I0
I0
I0
tp4080
a(I19
I38
I19
tp4081
a(I0
I0
I0
tp4082
a(I0
I0
I0
tp4083
a(I0
I0
I0
tp4084
a(I0
I0
I0
tp4085
a(I0
I0
I0
tp4086
a(I24
I43
I19
tp4087
atp4088
a(S'kneel'
(lp4089
(I4
I28
I24
tp4090
a(I0
I0
I0
tp4091
a(I156
I174
I18
tp4092
a(I44
I117
I73
tp4093
a(I47
I85
I38
tp4094
a(I48
I90
I42
tp4095
a(I0
I0
I0
tp4096
a(I1
I50
I49
tp4097
a(I44
I96
I52
tp4098
a(I1
I78
I77
tp4099
a(I0
I0
I0
tp4100
a(I49
I66
I17
tp4101
a(I0
I0
I0
tp4102
a(I79
I158
I79
tp4103
a(I9
I55
I46
tp4104
a(I0
I0
I0
tp4105
a(I127
I153
I26
tp4106
a(I0
I0
I0
tp4107
a(I213
I255
I42
tp4108
a(I34
I133
I99
tp4109
a(I1
I89
I88
tp4110
a(I102
I143
I41
tp4111
a(I0
I0
I0
tp4112
a(I8
I50
I42
tp4113
a(I8
I83
I75
tp4114
a(I236
I236
I0
tp4115
a(I0
I0
I0
tp4116
a(I0
I0
I0
tp4117
a(I0
I0
I0
tp4118
a(I171
I197
I26
tp4119
a(I8
I98
I90
tp4120
a(I7
I58
I51
tp4121
a(I0
I0
I0
tp4122
a(I0
I0
I0
tp4123
a(I0
I0
I0
tp4124
atp4125
a(S'leap'
(lp4126
(I64
I81
I17
tp4127
a(I0
I0
I0
tp4128
a(I188
I215
I27
tp4129
a(I0
I0
I0
tp4130
a(I302
I313
I11
tp4131
a(I0
I0
I0
tp4132
a(I0
I0
I0
tp4133
a(I58
I79
I21
tp4134
a(I54
I81
I27
tp4135
a(I28
I67
I39
tp4136
a(I100
I118
I18
tp4137
a(I0
I0
I0
tp4138
a(I110
I199
I89
tp4139
a(I7
I20
I13
tp4140
a(I0
I0
I0
tp4141
a(I0
I0
I0
tp4142
a(I0
I0
I0
tp4143
a(I48
I81
I33
tp4144
a(I0
I0
I0
tp4145
a(I0
I0
I0
tp4146
a(I54
I66
I12
tp4147
a(I269
I306
I37
tp4148
a(I63
I76
I13
tp4149
a(I221
I247
I26
tp4150
a(I130
I147
I17
tp4151
a(I15
I26
I11
tp4152
a(I0
I0
I0
tp4153
a(I12
I24
I12
tp4154
a(I12
I28
I16
tp4155
a(I172
I192
I20
tp4156
a(I121
I138
I17
tp4157
a(I49
I67
I18
tp4158
a(I93
I106
I13
tp4159
a(I7
I23
I16
tp4160
a(I46
I62
I16
tp4161
a(I0
I0
I0
tp4162
a(I123
I143
I20
tp4163
a(I67
I94
I27
tp4164
a(I10
I28
I18
tp4165
a(I8
I25
I17
tp4166
a(I0
I0
I0
tp4167
a(I29
I56
I27
tp4168
a(I40
I69
I29
tp4169
a(I210
I228
I18
tp4170
a(I55
I73
I18
tp4171
a(I0
I0
I0
tp4172
a(I34
I87
I53
tp4173
a(I195
I206
I11
tp4174
a(I74
I98
I24
tp4175
a(I0
I0
I0
tp4176
a(I0
I0
I0
tp4177
a(I60
I91
I31
tp4178
a(I84
I118
I34
tp4179
a(I98
I118
I20
tp4180
a(I78
I86
I8
tp4181
a(I0
I0
I0
tp4182
a(I24
I47
I23
tp4183
a(I0
I0
I0
tp4184
a(I0
I0
I0
tp4185
a(I71
I101
I30
tp4186
a(I28
I35
I7
tp4187
a(I0
I0
I0
tp4188
a(I137
I156
I19
tp4189
a(I0
I0
I0
tp4190
a(I36
I49
I13
tp4191
atp4192
a(S'nod'
(lp4193
(I0
I0
I0
tp4194
a(I1
I18
I17
tp4195
a(I113
I130
I17
tp4196
a(I1
I21
I20
tp4197
a(I0
I0
I0
tp4198
a(I1
I17
I16
tp4199
a(I2
I27
I25
tp4200
a(I41
I62
I21
tp4201
a(I6
I36
I30
tp4202
a(I47
I86
I39
tp4203
a(I0
I0
I0
tp4204
a(I106
I154
I48
tp4205
a(I9
I52
I43
tp4206
a(I24
I58
I34
tp4207
a(I43
I68
I25
tp4208
a(I11
I42
I31
tp4209
a(I1
I22
I21
tp4210
a(I0
I0
I0
tp4211
a(I9
I47
I38
tp4212
a(I0
I0
I0
tp4213
a(I4
I35
I31
tp4214
a(I0
I0
I0
tp4215
a(I0
I0
I0
tp4216
a(I12
I42
I30
tp4217
a(I21
I43
I22
tp4218
a(I37
I92
I55
tp4219
a(I12
I50
I38
tp4220
a(I0
I0
I0
tp4221
a(I24
I57
I33
tp4222
a(I11
I33
I22
tp4223
a(I70
I103
I33
tp4224
a(I1
I52
I51
tp4225
a(I0
I0
I0
tp4226
a(I1
I29
I28
tp4227
a(I102
I182
I80
tp4228
a(I1
I21
I20
tp4229
a(I60
I80
I20
tp4230
a(I29
I60
I31
tp4231
a(I8
I57
I49
tp4232
a(I1
I29
I28
tp4233
a(I1
I27
I26
tp4234
a(I1
I62
I61
tp4235
a(I0
I0
I0
tp4236
a(I45
I87
I42
tp4237
a(I84
I112
I28
tp4238
a(I0
I0
I0
tp4239
a(I2
I37
I35
tp4240
a(I0
I0
I0
tp4241
a(I61
I88
I27
tp4242
a(I20
I55
I35
tp4243
a(I3
I27
I24
tp4244
a(I4
I14
I10
tp4245
a(I102
I127
I25
tp4246
a(I96
I163
I67
tp4247
a(I24
I55
I31
tp4248
a(I1
I26
I25
tp4249
a(I69
I100
I31
tp4250
a(I11
I51
I40
tp4251
a(I1
I28
I27
tp4252
a(I20
I109
I89
tp4253
a(I1
I32
I31
tp4254
a(I60
I60
I0
tp4255
a(I1
I55
I54
tp4256
a(I54
I95
I41
tp4257
a(I15
I29
I14
tp4258
a(I10
I48
I38
tp4259
a(I0
I0
I0
tp4260
a(I1
I73
I72
tp4261
a(I0
I0
I0
tp4262
a(I16
I84
I68
tp4263
a(I1
I57
I56
tp4264
a(I5
I44
I39
tp4265
a(I154
I154
I0
tp4266
a(I63
I127
I64
tp4267
a(I46
I77
I31
tp4268
a(I1
I27
I26
tp4269
a(I2
I51
I49
tp4270
a(I1
I29
I28
tp4271
a(I0
I0
I0
tp4272
a(I0
I0
I0
tp4273
a(I20
I81
I61
tp4274
a(I45
I91
I46
tp4275
a(I1
I22
I21
tp4276
a(I96
I145
I49
tp4277
a(I71
I109
I38
tp4278
a(I11
I71
I60
tp4279
a(I1
I101
I100
tp4280
a(I0
I0
I0
tp4281
a(I8
I105
I97
tp4282
a(I110
I110
I0
tp4283
a(I30
I92
I62
tp4284
a(I31
I107
I76
tp4285
a(I1
I45
I44
tp4286
a(I1
I32
I31
tp4287
a(I1
I36
I35
tp4288
a(I1
I61
I60
tp4289
a(I0
I0
I0
tp4290
a(I12
I41
I29
tp4291
a(I0
I0
I0
tp4292
a(I1
I28
I27
tp4293
a(I10
I64
I54
tp4294
a(I8
I38
I30
tp4295
a(I10
I45
I35
tp4296
a(I0
I0
I0
tp4297
a(I114
I139
I25
tp4298
a(I63
I98
I35
tp4299
a(I0
I0
I0
tp4300
a(I1
I51
I50
tp4301
a(I1
I53
I52
tp4302
a(I0
I0
I0
tp4303
a(I1
I56
I55
tp4304
a(I1
I29
I28
tp4305
a(I77
I108
I31
tp4306
a(I109
I130
I21
tp4307
a(I1
I18
I17
tp4308
a(I60
I77
I17
tp4309
a(I56
I69
I13
tp4310
a(I1
I46
I45
tp4311
a(I3
I56
I53
tp4312
a(I12
I57
I45
tp4313
a(I4
I56
I52
tp4314
a(I24
I72
I48
tp4315
a(I3
I38
I35
tp4316
a(I8
I72
I64
tp4317
a(I12
I81
I69
tp4318
atp4319
a(S'point'
(lp4320
(I36
I53
I17
tp4321
a(I123
I153
I30
tp4322
a(I1
I10
I9
tp4323
a(I28
I67
I39
tp4324
a(I1
I32
I31
tp4325
a(I37
I55
I18
tp4326
a(I1
I27
I26
tp4327
a(I0
I0
I0
tp4328
a(I0
I0
I0
tp4329
a(I0
I0
I0
tp4330
a(I46
I89
I43
tp4331
a(I34
I55
I21
tp4332
a(I85
I115
I30
tp4333
a(I1
I40
I39
tp4334
a(I0
I0
I0
tp4335
a(I148
I167
I19
tp4336
a(I99
I148
I49
tp4337
a(I32
I52
I20
tp4338
a(I0
I0
I0
tp4339
a(I0
I0
I0
tp4340
a(I1
I20
I19
tp4341
a(I1
I90
I89
tp4342
a(I0
I0
I0
tp4343
a(I6
I20
I14
tp4344
a(I1
I1
I0
tp4345
a(I1
I43
I42
tp4346
a(I5
I77
I72
tp4347
a(I55
I75
I20
tp4348
a(I0
I0
I0
tp4349
a(I0
I0
I0
tp4350
a(I0
I0
I0
tp4351
a(I0
I0
I0
tp4352
a(I0
I0
I0
tp4353
a(I1
I4
I3
tp4354
a(I1
I27
I26
tp4355
a(I1
I38
I37
tp4356
a(I57
I84
I27
tp4357
a(I1
I13
I12
tp4358
a(I0
I0
I0
tp4359
a(I26
I44
I18
tp4360
a(I24
I65
I41
tp4361
a(I71
I71
I0
tp4362
a(I110
I133
I23
tp4363
a(I28
I28
I0
tp4364
a(I0
I0
I0
tp4365
a(I0
I0
I0
tp4366
a(I22
I78
I56
tp4367
a(I46
I95
I49
tp4368
a(I2
I48
I46
tp4369
a(I13
I36
I23
tp4370
a(I0
I0
I0
tp4371
a(I0
I0
I0
tp4372
a(I81
I119
I38
tp4373
a(I20
I51
I31
tp4374
a(I1
I43
I42
tp4375
a(I4
I82
I78
tp4376
a(I0
I0
I0
tp4377
a(I0
I0
I0
tp4378
a(I118
I144
I26
tp4379
a(I0
I0
I0
tp4380
a(I7
I66
I59
tp4381
a(I0
I0
I0
tp4382
a(I19
I52
I33
tp4383
a(I52
I86
I34
tp4384
a(I88
I124
I36
tp4385
a(I134
I148
I14
tp4386
a(I235
I260
I25
tp4387
a(I1
I23
I22
tp4388
a(I1
I6
I5
tp4389
a(I0
I0
I0
tp4390
a(I129
I170
I41
tp4391
a(I1
I12
I11
tp4392
a(I2
I55
I53
tp4393
a(I42
I80
I38
tp4394
a(I0
I0
I0
tp4395
a(I0
I0
I0
tp4396
a(I0
I0
I0
tp4397
a(I17
I49
I32
tp4398
a(I0
I0
I0
tp4399
a(I0
I0
I0
tp4400
a(I87
I121
I34
tp4401
a(I19
I75
I56
tp4402
a(I101
I124
I23
tp4403
a(I94
I111
I17
tp4404
a(I17
I47
I30
tp4405
a(I1
I21
I20
tp4406
a(I26
I100
I74
tp4407
a(I0
I0
I0
tp4408
a(I0
I0
I0
tp4409
a(I1
I17
I16
tp4410
a(I0
I0
I0
tp4411
a(I51
I136
I85
tp4412
a(I36
I62
I26
tp4413
a(I0
I0
I0
tp4414
a(I0
I0
I0
tp4415
a(I82
I100
I18
tp4416
a(I0
I0
I0
tp4417
a(I21
I93
I72
tp4418
a(I1
I17
I16
tp4419
a(I25
I92
I67
tp4420
a(I68
I100
I32
tp4421
a(I115
I147
I32
tp4422
a(I1
I28
I27
tp4423
a(I37
I83
I46
tp4424
a(I144
I171
I27
tp4425
a(I0
I0
I0
tp4426
a(I0
I0
I0
tp4427
a(I62
I100
I38
tp4428
a(I1
I20
I19
tp4429
a(I25
I25
I0
tp4430
a(I1
I54
I53
tp4431
a(I84
I148
I64
tp4432
a(I44
I63
I19
tp4433
a(I0
I0
I0
tp4434
a(I103
I149
I46
tp4435
a(I0
I0
I0
tp4436
a(I41
I69
I28
tp4437
a(I26
I88
I62
tp4438
a(I0
I0
I0
tp4439
a(I0
I0
I0
tp4440
a(I0
I0
I0
tp4441
a(I5
I55
I50
tp4442
a(I0
I0
I0
tp4443
a(I4
I39
I35
tp4444
a(I42
I90
I48
tp4445
a(I0
I0
I0
tp4446
a(I12
I40
I28
tp4447
a(I36
I73
I37
tp4448
a(I1
I48
I47
tp4449
a(I1
I34
I33
tp4450
a(I0
I0
I0
tp4451
a(I42
I87
I45
tp4452
a(I155
I193
I38
tp4453
a(I1
I124
I123
tp4454
a(I0
I0
I0
tp4455
a(I0
I0
I0
tp4456
a(I1
I19
I18
tp4457
atp4458
a(S'push'
(lp4459
(I0
I0
I0
tp4460
a(I0
I0
I0
tp4461
a(I1
I22
I21
tp4462
a(I66
I95
I29
tp4463
a(I0
I0
I0
tp4464
a(I0
I0
I0
tp4465
a(I26
I81
I55
tp4466
a(I92
I112
I20
tp4467
a(I0
I0
I0
tp4468
a(I0
I0
I0
tp4469
a(I35
I71
I36
tp4470
a(I23
I47
I24
tp4471
a(I0
I0
I0
tp4472
a(I236
I260
I24
tp4473
a(I45
I64
I19
tp4474
a(I0
I0
I0
tp4475
a(I0
I0
I0
tp4476
a(I1
I47
I46
tp4477
a(I23
I34
I11
tp4478
a(I120
I148
I28
tp4479
a(I34
I61
I27
tp4480
a(I178
I282
I104
tp4481
a(I0
I0
I0
tp4482
a(I0
I0
I0
tp4483
a(I0
I0
I0
tp4484
a(I0
I0
I0
tp4485
a(I1
I24
I23
tp4486
a(I148
I170
I22
tp4487
a(I0
I0
I0
tp4488
a(I0
I0
I0
tp4489
a(I0
I0
I0
tp4490
a(I0
I0
I0
tp4491
a(I0
I0
I0
tp4492
a(I0
I0
I0
tp4493
a(I0
I0
I0
tp4494
a(I0
I0
I0
tp4495
a(I0
I0
I0
tp4496
a(I0
I0
I0
tp4497
a(I0
I0
I0
tp4498
a(I0
I0
I0
tp4499
a(I0
I0
I0
tp4500
a(I0
I0
I0
tp4501
a(I0
I0
I0
tp4502
a(I0
I0
I0
tp4503
a(I0
I0
I0
tp4504
a(I0
I0
I0
tp4505
a(I0
I0
I0
tp4506
a(I0
I0
I0
tp4507
a(I0
I0
I0
tp4508
a(I1
I21
I20
tp4509
a(I0
I0
I0
tp4510
a(I23
I46
I23
tp4511
a(I2
I28
I26
tp4512
a(I13
I51
I38
tp4513
a(I15
I37
I22
tp4514
a(I44
I87
I43
tp4515
a(I11
I43
I32
tp4516
a(I0
I0
I0
tp4517
a(I46
I57
I11
tp4518
a(I0
I0
I0
tp4519
a(I0
I0
I0
tp4520
a(I0
I0
I0
tp4521
a(I0
I0
I0
tp4522
a(I0
I0
I0
tp4523
a(I1
I33
I32
tp4524
a(I0
I0
I0
tp4525
a(I35
I47
I12
tp4526
a(I22
I51
I29
tp4527
a(I137
I156
I19
tp4528
a(I81
I98
I17
tp4529
a(I0
I0
I0
tp4530
a(I69
I126
I57
tp4531
a(I0
I0
I0
tp4532
a(I27
I43
I16
tp4533
a(I0
I0
I0
tp4534
a(I47
I63
I16
tp4535
a(I27
I41
I14
tp4536
a(I26
I67
I41
tp4537
a(I0
I0
I0
tp4538
a(I105
I130
I25
tp4539
a(I0
I0
I0
tp4540
a(I41
I88
I47
tp4541
a(I82
I134
I52
tp4542
a(I0
I0
I0
tp4543
a(I136
I154
I18
tp4544
a(I46
I76
I30
tp4545
a(I0
I0
I0
tp4546
a(I0
I0
I0
tp4547
a(I40
I67
I27
tp4548
a(I180
I206
I26
tp4549
a(I29
I43
I14
tp4550
a(I0
I0
I0
tp4551
a(I22
I45
I23
tp4552
a(I0
I0
I0
tp4553
a(I0
I0
I0
tp4554
a(I0
I0
I0
tp4555
a(I1
I19
I18
tp4556
a(I1
I24
I23
tp4557
a(I21
I43
I22
tp4558
a(I0
I0
I0
tp4559
a(I0
I0
I0
tp4560
a(I1
I18
I17
tp4561
a(I0
I0
I0
tp4562
a(I84
I97
I13
tp4563
a(I2
I30
I28
tp4564
a(I61
I117
I56
tp4565
a(I27
I41
I14
tp4566
a(I0
I0
I0
tp4567
a(I82
I97
I15
tp4568
a(I0
I0
I0
tp4569
a(I0
I0
I0
tp4570
a(I0
I0
I0
tp4571
a(I0
I0
I0
tp4572
a(I0
I0
I0
tp4573
a(I0
I0
I0
tp4574
a(I0
I0
I0
tp4575
a(I0
I0
I0
tp4576
a(I0
I0
I0
tp4577
a(I85
I97
I12
tp4578
a(I96
I124
I28
tp4579
a(I69
I111
I42
tp4580
a(I15
I141
I126
tp4581
a(I0
I0
I0
tp4582
a(I103
I145
I42
tp4583
a(I0
I0
I0
tp4584
a(I30
I65
I35
tp4585
a(I1
I12
I11
tp4586
a(I0
I0
I0
tp4587
a(I0
I0
I0
tp4588
a(I0
I0
I0
tp4589
a(I0
I0
I0
tp4590
a(I0
I0
I0
tp4591
a(I0
I0
I0
tp4592
a(I0
I0
I0
tp4593
a(I0
I0
I0
tp4594
a(I1
I78
I77
tp4595
a(I101
I128
I27
tp4596
a(I0
I0
I0
tp4597
a(I72
I112
I40
tp4598
a(I0
I0
I0
tp4599
a(I0
I0
I0
tp4600
a(I0
I0
I0
tp4601
a(I0
I0
I0
tp4602
a(I0
I0
I0
tp4603
a(I0
I0
I0
tp4604
a(I0
I0
I0
tp4605
a(I95
I124
I29
tp4606
a(I1
I52
I51
tp4607
a(I18
I54
I36
tp4608
a(I0
I0
I0
tp4609
a(I47
I111
I64
tp4610
a(I0
I0
I0
tp4611
a(I78
I99
I21
tp4612
a(I58
I94
I36
tp4613
a(I3
I32
I29
tp4614
a(I133
I147
I14
tp4615
a(I71
I90
I19
tp4616
a(I27
I47
I20
tp4617
a(I0
I0
I0
tp4618
a(I0
I0
I0
tp4619
a(I23
I50
I27
tp4620
a(I27
I52
I25
tp4621
a(I159
I219
I60
tp4622
a(I40
I84
I44
tp4623
a(I122
I140
I18
tp4624
a(I123
I134
I11
tp4625
a(I5
I56
I51
tp4626
a(I1
I10
I9
tp4627
a(I0
I0
I0
tp4628
a(I9
I42
I33
tp4629
a(I112
I142
I30
tp4630
a(I144
I171
I27
tp4631
a(I0
I0
I0
tp4632
a(I1
I167
I166
tp4633
a(I73
I105
I32
tp4634
a(I46
I137
I91
tp4635
a(I0
I0
I0
tp4636
a(I146
I195
I49
tp4637
a(I1
I19
I18
tp4638
a(I11
I37
I26
tp4639
a(I78
I92
I14
tp4640
a(I43
I55
I12
tp4641
a(I77
I101
I24
tp4642
a(I70
I91
I21
tp4643
a(I5
I21
I16
tp4644
a(I0
I0
I0
tp4645
a(I0
I0
I0
tp4646
a(I36
I55
I19
tp4647
a(I0
I0
I0
tp4648
a(I0
I0
I0
tp4649
a(I88
I124
I36
tp4650
a(I70
I85
I15
tp4651
a(I34
I48
I14
tp4652
a(I8
I27
I19
tp4653
a(I29
I49
I20
tp4654
a(I20
I32
I12
tp4655
a(I0
I0
I0
tp4656
a(I0
I0
I0
tp4657
a(I0
I0
I0
tp4658
a(I5
I20
I15
tp4659
a(I0
I0
I0
tp4660
a(I0
I0
I0
tp4661
a(I0
I0
I0
tp4662
a(I14
I104
I90
tp4663
a(I28
I82
I54
tp4664
a(I150
I171
I21
tp4665
a(I68
I83
I15
tp4666
a(I56
I76
I20
tp4667
a(I0
I0
I0
tp4668
a(I111
I132
I21
tp4669
a(I114
I136
I22
tp4670
a(I1
I92
I91
tp4671
a(I6
I33
I27
tp4672
a(I0
I0
I0
tp4673
a(I55
I79
I24
tp4674
a(I144
I172
I28
tp4675
a(I0
I0
I0
tp4676
a(I71
I94
I23
tp4677
a(I0
I0
I0
tp4678
atp4679
a(S'ride'
(lp4680
(I60
I96
I36
tp4681
a(I33
I63
I30
tp4682
a(I0
I0
I0
tp4683
a(I0
I0
I0
tp4684
a(I90
I135
I45
tp4685
a(I0
I0
I0
tp4686
a(I119
I162
I43
tp4687
a(I1
I38
I37
tp4688
a(I36
I65
I29
tp4689
a(I104
I140
I36
tp4690
a(I53
I125
I72
tp4691
a(I22
I37
I15
tp4692
a(I33
I47
I14
tp4693
a(I39
I119
I80
tp4694
a(I0
I0
I0
tp4695
a(I103
I137
I34
tp4696
a(I147
I148
I1
tp4697
a(I133
I170
I37
tp4698
a(I110
I121
I11
tp4699
a(I0
I0
I0
tp4700
a(I195
I215
I20
tp4701
a(I48
I63
I15
tp4702
a(I134
I158
I24
tp4703
a(I0
I0
I0
tp4704
a(I73
I91
I18
tp4705
a(I158
I203
I45
tp4706
a(I266
I285
I19
tp4707
a(I84
I120
I36
tp4708
a(I0
I0
I0
tp4709
a(I0
I0
I0
tp4710
a(I0
I0
I0
tp4711
a(I33
I71
I38
tp4712
a(I27
I52
I25
tp4713
a(I42
I53
I11
tp4714
a(I0
I0
I0
tp4715
a(I0
I0
I0
tp4716
a(I0
I0
I0
tp4717
a(I15
I40
I25
tp4718
atp4719
a(S'run'
(lp4720
(I18
I89
I71
tp4721
a(I8
I48
I40
tp4722
a(I13
I64
I51
tp4723
a(I27
I61
I34
tp4724
a(I39
I99
I60
tp4725
a(I0
I0
I0
tp4726
a(I0
I0
I0
tp4727
a(I0
I0
I0
tp4728
a(I105
I123
I18
tp4729
a(I0
I0
I0
tp4730
a(I62
I99
I37
tp4731
a(I0
I0
I0
tp4732
a(I0
I0
I0
tp4733
a(I28
I116
I88
tp4734
a(I92
I136
I44
tp4735
a(I1
I32
I31
tp4736
a(I122
I147
I25
tp4737
a(I38
I87
I49
tp4738
a(I1
I59
I58
tp4739
a(I94
I144
I50
tp4740
a(I0
I0
I0
tp4741
a(I1
I46
I45
tp4742
a(I14
I69
I55
tp4743
a(I0
I0
I0
tp4744
a(I82
I177
I95
tp4745
a(I108
I140
I32
tp4746
a(I0
I0
I0
tp4747
a(I0
I0
I0
tp4748
a(I0
I0
I0
tp4749
a(I0
I0
I0
tp4750
a(I145
I176
I31
tp4751
a(I29
I208
I179
tp4752
a(I34
I96
I62
tp4753
a(I0
I0
I0
tp4754
a(I1
I16
I15
tp4755
a(I0
I0
I0
tp4756
a(I33
I66
I33
tp4757
a(I28
I60
I32
tp4758
a(I0
I0
I0
tp4759
a(I0
I0
I0
tp4760
a(I131
I168
I37
tp4761
a(I182
I207
I25
tp4762
a(I0
I0
I0
tp4763
a(I216
I278
I62
tp4764
a(I0
I0
I0
tp4765
a(I28
I60
I32
tp4766
a(I90
I113
I23
tp4767
a(I0
I0
I0
tp4768
a(I0
I0
I0
tp4769
a(I0
I0
I0
tp4770
a(I0
I0
I0
tp4771
a(I0
I0
I0
tp4772
a(I55
I123
I68
tp4773
a(I0
I0
I0
tp4774
a(I22
I95
I73
tp4775
a(I20
I88
I68
tp4776
a(I0
I0
I0
tp4777
a(I18
I37
I19
tp4778
a(I0
I0
I0
tp4779
a(I19
I99
I80
tp4780
a(I0
I0
I0
tp4781
a(I0
I0
I0
tp4782
a(I0
I0
I0
tp4783
a(I94
I123
I29
tp4784
a(I0
I0
I0
tp4785
a(I1
I44
I43
tp4786
a(I0
I0
I0
tp4787
a(I0
I0
I0
tp4788
a(I0
I0
I0
tp4789
a(I0
I0
I0
tp4790
a(I0
I0
I0
tp4791
a(I52
I121
I69
tp4792
a(I0
I0
I0
tp4793
a(I0
I0
I0
tp4794
a(I0
I0
I0
tp4795
a(I0
I0
I0
tp4796
a(I0
I0
I0
tp4797
a(I0
I0
I0
tp4798
a(I0
I0
I0
tp4799
a(I0
I0
I0
tp4800
a(I0
I0
I0
tp4801
a(I0
I0
I0
tp4802
a(I0
I0
I0
tp4803
a(I0
I0
I0
tp4804
a(I0
I0
I0
tp4805
a(I0
I0
I0
tp4806
a(I0
I0
I0
tp4807
a(I139
I171
I32
tp4808
a(I0
I0
I0
tp4809
a(I0
I0
I0
tp4810
a(I0
I0
I0
tp4811
a(I0
I0
I0
tp4812
a(I0
I0
I0
tp4813
a(I0
I0
I0
tp4814
a(I0
I0
I0
tp4815
a(I0
I0
I0
tp4816
a(I0
I0
I0
tp4817
a(I49
I49
I0
tp4818
a(I0
I0
I0
tp4819
a(I0
I19
I19
tp4820
a(I172
I213
I41
tp4821
a(I1
I57
I56
tp4822
a(I0
I0
I0
tp4823
a(I1
I55
I54
tp4824
a(I0
I0
I0
tp4825
a(I3
I143
I140
tp4826
a(I79
I80
I1
tp4827
a(I0
I0
I0
tp4828
a(I83
I124
I41
tp4829
a(I1
I14
I13
tp4830
a(I104
I160
I56
tp4831
a(I0
I0
I0
tp4832
a(I0
I0
I0
tp4833
a(I24
I63
I39
tp4834
a(I0
I0
I0
tp4835
a(I131
I162
I31
tp4836
a(I0
I0
I0
tp4837
a(I0
I0
I0
tp4838
a(I22
I86
I64
tp4839
a(I41
I70
I29
tp4840
a(I0
I0
I0
tp4841
a(I20
I65
I45
tp4842
a(I38
I124
I86
tp4843
a(I0
I0
I0
tp4844
a(I1
I22
I21
tp4845
a(I60
I82
I22
tp4846
a(I31
I59
I28
tp4847
a(I0
I0
I0
tp4848
a(I50
I90
I40
tp4849
a(I0
I0
I0
tp4850
a(I0
I0
I0
tp4851
a(I0
I0
I0
tp4852
a(I1
I17
I16
tp4853
a(I116
I144
I28
tp4854
a(I66
I147
I81
tp4855
a(I7
I89
I82
tp4856
a(I0
I0
I0
tp4857
a(I0
I0
I0
tp4858
a(I0
I0
I0
tp4859
a(I0
I0
I0
tp4860
a(I0
I0
I0
tp4861
a(I0
I0
I0
tp4862
a(I56
I98
I42
tp4863
a(I34
I100
I66
tp4864
a(I0
I0
I0
tp4865
a(I120
I172
I52
tp4866
a(I71
I148
I77
tp4867
a(I103
I151
I48
tp4868
a(I0
I148
I148
tp4869
a(I0
I108
I108
tp4870
a(I32
I130
I98
tp4871
a(I0
I0
I0
tp4872
a(I0
I0
I0
tp4873
a(I20
I60
I40
tp4874
a(I121
I146
I25
tp4875
a(I115
I245
I130
tp4876
a(I0
I0
I0
tp4877
a(I132
I145
I13
tp4878
a(I11
I45
I34
tp4879
a(I0
I89
I89
tp4880
a(I0
I0
I0
tp4881
a(I0
I0
I0
tp4882
a(I59
I89
I30
tp4883
a(I0
I0
I0
tp4884
a(I89
I124
I35
tp4885
a(I8
I57
I49
tp4886
a(I114
I141
I27
tp4887
a(I0
I153
I153
tp4888
a(I0
I60
I60
tp4889
a(I0
I0
I0
tp4890
a(I0
I0
I0
tp4891
a(I0
I0
I0
tp4892
a(I0
I97
I97
tp4893
a(I0
I112
I112
tp4894
a(I0
I35
I35
tp4895
a(I0
I58
I58
tp4896
a(I0
I113
I113
tp4897
a(I0
I167
I167
tp4898
a(I0
I0
I0
tp4899
a(I0
I0
I0
tp4900
a(I0
I125
I125
tp4901
a(I15
I100
I85
tp4902
a(I0
I0
I0
tp4903
a(I51
I93
I42
tp4904
a(I0
I0
I0
tp4905
a(I41
I90
I49
tp4906
a(I0
I0
I0
tp4907
a(I0
I0
I0
tp4908
a(I65
I104
I39
tp4909
a(I0
I0
I0
tp4910
a(I130
I130
I0
tp4911
a(I6
I51
I45
tp4912
a(I58
I196
I138
tp4913
a(I80
I121
I41
tp4914
a(I84
I96
I12
tp4915
a(I54
I115
I61
tp4916
a(I21
I62
I41
tp4917
a(I59
I114
I55
tp4918
a(I0
I0
I0
tp4919
a(I0
I0
I0
tp4920
a(I0
I0
I0
tp4921
a(I119
I147
I28
tp4922
a(I0
I0
I0
tp4923
a(I0
I0
I0
tp4924
a(I78
I78
I0
tp4925
a(I53
I53
I0
tp4926
a(I0
I0
I0
tp4927
a(I92
I92
I0
tp4928
a(I206
I206
I0
tp4929
a(I62
I124
I62
tp4930
a(I0
I0
I0
tp4931
a(I0
I0
I0
tp4932
a(I95
I171
I76
tp4933
a(I36
I85
I49
tp4934
a(I0
I0
I0
tp4935
a(I0
I0
I0
tp4936
a(I127
I180
I53
tp4937
a(I35
I110
I75
tp4938
a(I0
I0
I0
tp4939
a(I0
I0
I0
tp4940
a(I1
I24
I23
tp4941
a(I0
I0
I0
tp4942
a(I129
I169
I40
tp4943
a(I0
I0
I0
tp4944
a(I0
I0
I0
tp4945
a(I0
I0
I0
tp4946
a(I0
I0
I0
tp4947
a(I0
I0
I0
tp4948
a(I0
I0
I0
tp4949
a(I0
I0
I0
tp4950
a(I161
I186
I25
tp4951
a(I245
I285
I40
tp4952
a(I201
I223
I22
tp4953
a(I0
I0
I0
tp4954
a(I0
I0
I0
tp4955
a(I0
I0
I0
tp4956
a(I0
I0
I0
tp4957
a(I1
I31
I30
tp4958
a(I0
I0
I0
tp4959
a(I24
I63
I39
tp4960
a(I0
I0
I0
tp4961
a(I1
I29
I28
tp4962
a(I53
I154
I101
tp4963
a(I176
I198
I22
tp4964
a(I0
I0
I0
tp4965
a(I38
I128
I90
tp4966
a(I0
I0
I0
tp4967
a(I65
I88
I23
tp4968
a(I0
I0
I0
tp4969
a(I0
I0
I0
tp4970
a(I0
I0
I0
tp4971
a(I0
I0
I0
tp4972
a(I70
I165
I95
tp4973
a(I124
I165
I41
tp4974
a(I0
I64
I64
tp4975
a(I0
I0
I0
tp4976
a(I0
I0
I0
tp4977
a(I0
I0
I0
tp4978
a(I0
I0
I0
tp4979
a(I1
I27
I26
tp4980
a(I0
I0
I0
tp4981
a(I0
I0
I0
tp4982
a(I68
I109
I41
tp4983
a(I20
I60
I40
tp4984
a(I59
I148
I89
tp4985
a(I0
I0
I0
tp4986
a(I0
I0
I0
tp4987
a(I20
I83
I63
tp4988
a(I25
I56
I31
tp4989
a(I0
I0
I0
tp4990
a(I0
I0
I0
tp4991
a(I0
I0
I0
tp4992
a(I71
I147
I76
tp4993
a(I76
I145
I69
tp4994
a(I0
I0
I0
tp4995
a(I0
I0
I0
tp4996
a(I0
I0
I0
tp4997
a(I31
I61
I30
tp4998
a(I0
I0
I0
tp4999
a(I0
I0
I0
tp5000
a(I12
I114
I102
tp5001
a(I19
I72
I53
tp5002
a(I0
I49
I49
tp5003
a(I24
I64
I40
tp5004
a(I24
I148
I124
tp5005
a(I0
I84
I84
tp5006
a(I0
I0
I0
tp5007
a(I0
I0
I0
tp5008
a(I20
I64
I44
tp5009
a(I0
I0
I0
tp5010
a(I0
I0
I0
tp5011
a(I0
I0
I0
tp5012
a(I0
I0
I0
tp5013
a(I0
I0
I0
tp5014
a(I0
I0
I0
tp5015
a(I5
I29
I24
tp5016
a(I36
I98
I62
tp5017
a(I163
I195
I32
tp5018
a(I157
I290
I133
tp5019
a(I14
I67
I53
tp5020
a(I1
I100
I99
tp5021
a(I24
I112
I88
tp5022
a(I131
I175
I44
tp5023
a(I0
I0
I0
tp5024
a(I2
I32
I30
tp5025
a(I0
I0
I0
tp5026
a(I80
I118
I38
tp5027
a(I3
I88
I85
tp5028
a(I91
I121
I30
tp5029
a(I0
I0
I0
tp5030
a(I0
I0
I0
tp5031
a(I0
I0
I0
tp5032
a(I0
I0
I0
tp5033
a(I0
I0
I0
tp5034
a(I0
I0
I0
tp5035
a(I165
I197
I32
tp5036
a(I0
I0
I0
tp5037
a(I0
I0
I0
tp5038
a(I18
I134
I116
tp5039
a(I0
I0
I0
tp5040
a(I0
I0
I0
tp5041
a(I0
I0
I0
tp5042
a(I0
I0
I0
tp5043
a(I0
I0
I0
tp5044
a(I0
I0
I0
tp5045
a(I0
I0
I0
tp5046
a(I0
I0
I0
tp5047
a(I0
I0
I0
tp5048
a(I220
I387
I167
tp5049
a(I1
I45
I44
tp5050
a(I80
I117
I37
tp5051
a(I7
I72
I65
tp5052
a(I0
I0
I0
tp5053
a(I112
I158
I46
tp5054
a(I0
I0
I0
tp5055
a(I0
I0
I0
tp5056
a(I128
I188
I60
tp5057
a(I0
I0
I0
tp5058
a(I0
I0
I0
tp5059
a(I12
I50
I38
tp5060
a(I0
I0
I0
tp5061
a(I98
I163
I65
tp5062
a(I0
I0
I0
tp5063
a(I0
I0
I0
tp5064
a(I0
I0
I0
tp5065
a(I1
I1
I0
tp5066
a(I0
I0
I0
tp5067
a(I0
I0
I0
tp5068
a(I0
I0
I0
tp5069
a(I12
I97
I85
tp5070
a(I60
I83
I23
tp5071
a(I1
I57
I56
tp5072
a(I0
I0
I0
tp5073
a(I0
I0
I0
tp5074
a(I37
I100
I63
tp5075
a(I1
I35
I34
tp5076
a(I53
I88
I35
tp5077
a(I0
I0
I0
tp5078
a(I16
I77
I61
tp5079
a(I0
I0
I0
tp5080
a(I0
I0
I0
tp5081
a(I0
I0
I0
tp5082
a(I21
I82
I61
tp5083
a(I0
I0
I0
tp5084
a(I0
I0
I0
tp5085
a(I0
I0
I0
tp5086
a(I0
I0
I0
tp5087
a(I1
I67
I66
tp5088
a(I9
I80
I71
tp5089
a(I0
I0
I0
tp5090
a(I0
I0
I0
tp5091
a(I0
I0
I0
tp5092
a(I0
I0
I0
tp5093
a(I49
I89
I40
tp5094
a(I0
I0
I0
tp5095
a(I0
I0
I0
tp5096
a(I0
I0
I0
tp5097
a(I1
I123
I122
tp5098
a(I0
I0
I0
tp5099
a(I0
I0
I0
tp5100
a(I0
I0
I0
tp5101
a(I0
I0
I0
tp5102
a(I1
I39
I38
tp5103
a(I0
I0
I0
tp5104
a(I41
I114
I73
tp5105
a(I0
I0
I0
tp5106
a(I0
I0
I0
tp5107
a(I0
I0
I0
tp5108
a(I0
I0
I0
tp5109
a(I0
I0
I0
tp5110
a(I72
I105
I33
tp5111
a(I0
I0
I0
tp5112
a(I44
I119
I75
tp5113
a(I0
I0
I0
tp5114
a(I0
I0
I0
tp5115
a(I0
I0
I0
tp5116
a(I0
I0
I0
tp5117
a(I0
I0
I0
tp5118
a(I0
I0
I0
tp5119
a(I0
I0
I0
tp5120
a(I0
I0
I0
tp5121
a(I0
I0
I0
tp5122
a(I0
I0
I0
tp5123
a(I0
I0
I0
tp5124
a(I1
I33
I32
tp5125
a(I10
I49
I39
tp5126
a(I0
I0
I0
tp5127
a(I106
I131
I25
tp5128
a(I128
I128
I0
tp5129
a(I70
I121
I51
tp5130
a(I1
I38
I37
tp5131
a(I41
I41
I0
tp5132
a(I0
I0
I0
tp5133
a(I0
I0
I0
tp5134
a(I28
I103
I75
tp5135
a(I0
I0
I0
tp5136
a(I44
I66
I22
tp5137
a(I0
I0
I0
tp5138
a(I0
I0
I0
tp5139
a(I0
I0
I0
tp5140
a(I54
I72
I18
tp5141
a(I0
I0
I0
tp5142
a(I84
I120
I36
tp5143
a(I0
I0
I0
tp5144
a(I31
I63
I32
tp5145
a(I1
I43
I42
tp5146
a(I85
I193
I108
tp5147
a(I1
I57
I56
tp5148
a(I66
I133
I67
tp5149
a(I95
I134
I39
tp5150
a(I46
I58
I12
tp5151
a(I139
I243
I104
tp5152
a(I0
I0
I0
tp5153
a(I84
I118
I34
tp5154
a(I148
I185
I37
tp5155
a(I0
I0
I0
tp5156
a(I0
I0
I0
tp5157
a(I0
I0
I0
tp5158
a(I0
I0
I0
tp5159
a(I0
I0
I0
tp5160
a(I0
I0
I0
tp5161
a(I0
I0
I0
tp5162
a(I0
I0
I0
tp5163
a(I0
I0
I0
tp5164
a(I1
I112
I111
tp5165
a(I0
I0
I0
tp5166
a(I0
I0
I0
tp5167
a(I0
I0
I0
tp5168
a(I30
I171
I141
tp5169
a(I0
I0
I0
tp5170
a(I0
I0
I0
tp5171
a(I0
I0
I0
tp5172
a(I36
I96
I60
tp5173
a(I112
I171
I59
tp5174
a(I0
I0
I0
tp5175
a(I0
I0
I0
tp5176
a(I41
I71
I30
tp5177
a(I0
I0
I0
tp5178
a(I0
I0
I0
tp5179
a(I23
I46
I23
tp5180
a(I1
I15
I14
tp5181
a(I14
I124
I110
tp5182
a(I0
I0
I0
tp5183
a(I18
I76
I58
tp5184
a(I1
I93
I92
tp5185
a(I1
I29
I28
tp5186
a(I0
I0
I0
tp5187
a(I1
I82
I81
tp5188
a(I33
I76
I43
tp5189
a(I97
I97
I0
tp5190
a(I85
I85
I0
tp5191
a(I27
I70
I43
tp5192
a(I35
I53
I18
tp5193
a(I59
I128
I69
tp5194
a(I37
I103
I66
tp5195
a(I0
I0
I0
tp5196
a(I0
I0
I0
tp5197
a(I153
I176
I23
tp5198
a(I1
I76
I75
tp5199
a(I163
I201
I38
tp5200
a(I91
I134
I43
tp5201
a(I0
I0
I0
tp5202
a(I94
I134
I40
tp5203
a(I105
I161
I56
tp5204
a(I30
I56
I26
tp5205
a(I0
I0
I0
tp5206
a(I11
I35
I24
tp5207
a(I58
I104
I46
tp5208
a(I55
I55
I0
tp5209
a(I58
I99
I41
tp5210
a(I0
I0
I0
tp5211
a(I0
I0
I0
tp5212
a(I0
I0
I0
tp5213
a(I0
I0
I0
tp5214
a(I48
I97
I49
tp5215
a(I155
I215
I60
tp5216
a(I35
I35
I0
tp5217
a(I0
I0
I0
tp5218
a(I0
I0
I0
tp5219
a(I38
I104
I66
tp5220
a(I0
I0
I0
tp5221
a(I0
I0
I0
tp5222
a(I141
I233
I92
tp5223
a(I1
I38
I37
tp5224
a(I27
I104
I77
tp5225
a(I0
I0
I0
tp5226
a(I1
I45
I44
tp5227
a(I64
I139
I75
tp5228
a(I1
I83
I82
tp5229
a(I1
I31
I30
tp5230
a(I1
I35
I34
tp5231
a(I0
I0
I0
tp5232
a(I1
I22
I21
tp5233
a(I1
I25
I24
tp5234
a(I71
I117
I46
tp5235
a(I45
I77
I32
tp5236
a(I44
I86
I42
tp5237
a(I1
I17
I16
tp5238
a(I111
I148
I37
tp5239
a(I1
I148
I147
tp5240
a(I10
I78
I68
tp5241
a(I41
I123
I82
tp5242
a(I70
I148
I78
tp5243
a(I14
I76
I62
tp5244
a(I0
I0
I0
tp5245
a(I0
I0
I0
tp5246
a(I0
I0
I0
tp5247
a(I0
I0
I0
tp5248
a(I0
I0
I0
tp5249
a(I0
I0
I0
tp5250
a(I0
I0
I0
tp5251
a(I0
I0
I0
tp5252
a(I0
I0
I0
tp5253
a(I0
I0
I0
tp5254
a(I58
I174
I116
tp5255
a(I10
I121
I111
tp5256
a(I1
I36
I35
tp5257
a(I30
I71
I41
tp5258
a(I43
I106
I63
tp5259
a(I13
I51
I38
tp5260
a(I0
I0
I0
tp5261
a(I0
I0
I0
tp5262
a(I12
I49
I37
tp5263
a(I1
I63
I62
tp5264
a(I41
I76
I35
tp5265
a(I0
I0
I0
tp5266
a(I35
I114
I79
tp5267
a(I47
I94
I47
tp5268
a(I0
I0
I0
tp5269
a(I0
I0
I0
tp5270
a(I0
I0
I0
tp5271
a(I19
I65
I46
tp5272
a(I72
I85
I13
tp5273
a(I0
I0
I0
tp5274
a(I1
I46
I45
tp5275
a(I0
I0
I0
tp5276
a(I0
I0
I0
tp5277
a(I85
I167
I82
tp5278
a(I9
I45
I36
tp5279
a(I1
I25
I24
tp5280
a(I0
I0
I0
tp5281
a(I74
I100
I26
tp5282
a(I0
I0
I0
tp5283
a(I54
I170
I116
tp5284
a(I0
I0
I0
tp5285
a(I28
I148
I120
tp5286
a(I10
I118
I108
tp5287
a(I0
I0
I0
tp5288
a(I0
I0
I0
tp5289
a(I19
I76
I57
tp5290
a(I4
I64
I60
tp5291
a(I0
I0
I0
tp5292
a(I0
I0
I0
tp5293
a(I7
I93
I86
tp5294
a(I87
I87
I0
tp5295
a(I0
I0
I0
tp5296
a(I117
I128
I11
tp5297
a(I116
I145
I29
tp5298
a(I0
I0
I0
tp5299
a(I0
I0
I0
tp5300
a(I0
I0
I0
tp5301
a(I59
I87
I28
tp5302
a(I1
I19
I18
tp5303
a(I91
I114
I23
tp5304
a(I99
I143
I44
tp5305
a(I0
I0
I0
tp5306
a(I35
I106
I71
tp5307
a(I0
I0
I0
tp5308
a(I0
I0
I0
tp5309
atp5310
a(S'swim'
(lp5311
(I0
I0
I0
tp5312
a(I28
I58
I30
tp5313
a(I0
I0
I0
tp5314
a(I9
I77
I68
tp5315
a(I140
I175
I35
tp5316
a(I1
I96
I95
tp5317
a(I1
I1
I0
tp5318
a(I0
I0
I0
tp5319
a(I0
I0
I0
tp5320
a(I157
I243
I86
tp5321
a(I5
I52
I47
tp5322
a(I127
I153
I26
tp5323
a(I0
I0
I0
tp5324
a(I0
I0
I0
tp5325
a(I40
I143
I103
tp5326
a(I68
I93
I25
tp5327
a(I0
I0
I0
tp5328
a(I0
I0
I0
tp5329
a(I0
I0
I0
tp5330
a(I30
I131
I101
tp5331
a(I89
I127
I38
tp5332
a(I0
I0
I0
tp5333
a(I0
I0
I0
tp5334
a(I0
I0
I0
tp5335
a(I73
I194
I121
tp5336
a(I0
I0
I0
tp5337
a(I1
I109
I108
tp5338
a(I1
I1
I0
tp5339
a(I1
I65
I64
tp5340
a(I47
I154
I107
tp5341
a(I0
I0
I0
tp5342
a(I29
I88
I59
tp5343
a(I161
I161
I0
tp5344
a(I74
I178
I104
tp5345
a(I0
I0
I0
tp5346
a(I0
I0
I0
tp5347
a(I0
I0
I0
tp5348
a(I0
I0
I0
tp5349
a(I0
I0
I0
tp5350
a(I0
I0
I0
tp5351
a(I42
I123
I81
tp5352
a(I22
I196
I174
tp5353
a(I54
I133
I79
tp5354
a(I56
I56
I0
tp5355
a(I147
I194
I47
tp5356
a(I0
I0
I0
tp5357
a(I42
I120
I78
tp5358
a(I20
I47
I27
tp5359
a(I52
I91
I39
tp5360
a(I0
I0
I0
tp5361
a(I117
I166
I49
tp5362
atp5363
a(S'walk'
(lp5364
(I73
I153
I80
tp5365
a(I0
I0
I0
tp5366
a(I10
I29
I19
tp5367
a(I1
I52
I51
tp5368
a(I0
I0
I0
tp5369
a(I8
I89
I81
tp5370
a(I0
I0
I0
tp5371
a(I0
I0
I0
tp5372
a(I1
I60
I59
tp5373
a(I14
I34
I20
tp5374
a(I133
I172
I39
tp5375
a(I0
I0
I0
tp5376
a(I70
I178
I108
tp5377
a(I1
I81
I80
tp5378
a(I54
I103
I49
tp5379
a(I1
I70
I69
tp5380
a(I0
I0
I0
tp5381
a(I29
I64
I35
tp5382
a(I0
I0
I0
tp5383
a(I79
I127
I48
tp5384
a(I91
I127
I36
tp5385
a(I0
I0
I0
tp5386
a(I0
I0
I0
tp5387
a(I0
I0
I0
tp5388
atp5389
a(S'wave'
p5390
(lp5391
(I60
I82
I22
tp5392
a(I77
I92
I15
tp5393
a(I0
I0
I0
tp5394
a(I12
I38
I26
tp5395
a(I31
I70
I39
tp5396
a(I63
I110
I47
tp5397
a(I65
I88
I23
tp5398
a(I0
I0
I0
tp5399
a(I0
I0
I0
tp5400
a(I45
I76
I31
tp5401
a(I34
I60
I26
tp5402
a(I0
I0
I0
tp5403
a(I0
I0
I0
tp5404
a(I98
I133
I35
tp5405
a(I0
I0
I0
tp5406
a(I32
I65
I33
tp5407
a(I0
I0
I0
tp5408
a(I0
I0
I0
tp5409
a(I0
I0
I0
tp5410
a(I1
I181
I180
tp5411
a(I0
I0
I0
tp5412
a(I0
I0
I0
tp5413
a(I0
I0
I0
tp5414
a(I0
I0
I0
tp5415
a(I0
I0
I0
tp5416
a(I232
I266
I34
tp5417
a(I0
I0
I0
tp5418
a(I53
I72
I19
tp5419
a(I0
I0
I0
tp5420
a(I0
I0
I0
tp5421
a(I49
I71
I22
tp5422
a(I20
I55
I35
tp5423
a(I1
I17
I16
tp5424
a(I58
I85
I27
tp5425
a(I1
I36
I35
tp5426
a(I38
I117
I79
tp5427
a(I72
I99
I27
tp5428
a(I0
I0
I0
tp5429
a(I0
I0
I0
tp5430
a(I94
I148
I54
tp5431
a(I2
I130
I128
tp5432
a(I0
I0
I0
tp5433
a(I299
I325
I26
tp5434
a(I1
I36
I35
tp5435
a(I0
I0
I0
tp5436
a(I29
I49
I20
tp5437
a(I0
I0
I0
tp5438
a(I31
I63
I32
tp5439
a(I12
I31
I19
tp5440
a(I9
I71
I62
tp5441
a(I1
I50
I49
tp5442
a(I25
I50
I25
tp5443
a(I79
I98
I19
tp5444
a(I0
I0
I0
tp5445
a(I0
I0
I0
tp5446
a(I0
I0
I0
tp5447
a(I118
I138
I20
tp5448
a(I11
I21
I10
tp5449
a(I228
I265
I37
tp5450
a(I0
I0
I0
tp5451
a(I0
I0
I0
tp5452
a(I0
I0
I0
tp5453
a(I0
I0
I0
tp5454
a(I9
I32
I23
tp5455
a(I0
I0
I0
tp5456
a(I0
I0
I0
tp5457
a(I79
I119
I40
tp5458
a(I0
I0
I0
tp5459
a(I1
I16
I15
tp5460
a(I0
I0
I0
tp5461
a(I25
I54
I29
tp5462
a(I1
I69
I68
tp5463
a(I0
I0
I0
tp5464
a(I0
I0
I0
tp5465
a(I0
I0
I0
tp5466
a(I30
I79
I49
tp5467
a(I0
I0
I0
tp5468
a(I65
I107
I42
tp5469
a(I0
I0
I0
tp5470
a(I66
I113
I47
tp5471
a(I0
I0
I0
tp5472
a(I2
I28
I26
tp5473
a(I110
I156
I46
tp5474
a(I72
I90
I18
tp5475
a(I0
I0
I0
tp5476
a(I0
I0
I0
tp5477
a(I1
I32
I31
tp5478
a(I0
I0
I0
tp5479
a(I1
I18
I17
tp5480
a(I0
I0
I0
tp5481
a(I11
I29
I18
tp5482
a(I104
I147
I43
tp5483
a(I0
I0
I0
tp5484
a(I0
I0
I0
tp5485
a(I185
I209
I24
tp5486
a(I26
I72
I46
tp5487
a(I43
I61
I18
tp5488
a(I55
I86
I31
tp5489
a(I140
I167
I27
tp5490
a(I0
I0
I0
tp5491
a(I103
I133
I30
tp5492
a(I36
I83
I47
tp5493
a(I41
I100
I59
tp5494
a(I10
I55
I45
tp5495
a(I17
I49
I32
tp5496
a(I13
I31
I18
tp5497
a(I23
I48
I25
tp5498
a(I0
I0
I0
tp5499
a(I1
I81
I80
tp5500
a(I24
I24
I0
tp5501
a(I1
I28
I27
tp5502
a(I39
I64
I25
tp5503
a(I24
I43
I19
tp5504
a(I129
I149
I20
tp5505
a(I25
I57
I32
tp5506
a(I48
I70
I22
tp5507
a(I78
I100
I22
tp5508
a(I27
I51
I24
tp5509
a(I214
I225
I11
tp5510
a(I36
I54
I18
tp5511
a(I38
I86
I48
tp5512
a(I82
I114
I32
tp5513
a(I0
I0
I0
tp5514
a(I138
I174
I36
tp5515
a(I387
I444
I57
tp5516
a(I1
I16
I15
tp5517
a(I0
I0
I0
tp5518
a(I1
I26
I25
tp5519
a(I0
I0
I0
tp5520
a(I37
I66
I29
tp5521
a(I1
I24
I23
tp5522
a(I31
I51
I20
tp5523
a(I1
I107
I106
tp5524
a(I65
I90
I25
tp5525
atp5526
a.