(dp0
S'40_YEAR_OLD_VIRGIN_DVS16'
p1
S'annotated'
p2
sS'500DAYSOFSUMMER_DVS275'
p3
g2
sS'21_JUMP_STREET_DVS642'
p4
g2
sS'500DAYSOFSUMMER_DVS493'
p5
g2
sS'21_JUMP_STREET_DVS516'
p6
g2
sS'A_GOOD_DAY_TO_DIE_HARD_DVS139'
p7
g2
sS'A_GOOD_DAY_TO_DIE_HARD_DVS163'
p8
g2
sS'A_GOOD_DAY_TO_DIE_HARD_DVS928'
p9
g2
sS'21_JUMP_STREET_DVS393'
p10
g2
sS'21_JUMP_STREET_DVS171'
p11
g2
sS'21_JUMP_STREET_DVS635'
p12
g2
sS'A_GOOD_DAY_TO_DIE_HARD_DVS615'
p13
g2
sS'40_YEAR_OLD_VIRGIN_DVS20'
p14
g2
sS'A_GOOD_DAY_TO_DIE_HARD_DVS429'
p15
g2
sS'A_GOOD_DAY_TO_DIE_HARD_DVS596'
p16
g2
sS'30_MINUTES_OR_LESS_DVS60'
p17
g2
sS'30_MINUTES_OR_LESS_DVS162'
p18
g2
sS'21_JUMP_STREET_DVS675'
p19
g2
sS'500DAYSOFSUMMER_DVS530'
p20
g2
sS'40_YEAR_OLD_VIRGIN_DVS134'
p21
g2
sS'A_GOOD_DAY_TO_DIE_HARD_DVS819'
p22
g2
sS'500DAYSOFSUMMER_DVS458'
p23
g2
sS'A_GOOD_DAY_TO_DIE_HARD_DVS870'
p24
g2
sS'500DAYSOFSUMMER_DVS474'
p25
g2
s.