(dp0
S'KARATE_KID_DVS1602'
p1
S'annotated'
p2
sS'DINNER_FOR_SCHMUCKS_DVS429'
p3
g2
sS'KARATE_KID_DVS1607'
p4
g2
sS'DINNER_FOR_SCHMUCKS_DVS350'
p5
g2
sS'KARATE_KID_DVS1609'
p6
S'annotated'
p7
sS'THE_ADVENTURES_OF_TINTIN_DVS143'
p8
S'annotated'
p9
sS'PROMETHEUS_DVS357'
p10
g9
sS'THE_ADVENTURES_OF_TINTIN_DVS144'
p11
g9
sS'THE_VOW_DVS478'
p12
g9
sS'500DAYSOFSUMMER_DVS526'
p13
S'annotated'
p14
sS'SPARKLE_2012_DVS547'
p15
S'annotated'
p16
sS'GREEN_ZONE_DVS309'
p17
g9
sS'THE_SOCIAL_NETWORK_DVS157'
p18
S'annotated'
p19
sS'BATTLE_LOS_ANGELES_DVS83'
p20
g19
sS'BRUNO_DVS188'
p21
g2
sS'500DAYSOFSUMMER_DVS46'
p22
g7
sS'THE_GIRL_WITH_THE_DRAGON_TATTOO_DVS851'
p23
g2
sS'DEAR_JOHN_DVS70'
p24
g19
sS'DEAR_JOHN_DVS71'
p25
g16
sS'THE_GIRL_WITH_THE_DRAGON_TATTOO_DVS672'
p26
S'annotated'
p27
sS'INSIDE_MAN_DVS80'
p28
g27
sS'SPARKLE_2012_DVS300'
p29
g19
sS'PUBLIC_ENEMIES_DVS505'
p30
g19
sS'SUPER_8_DVS552'
p31
g9
sS'THOR_DVS558'
p32
g9
sS'DEAR_JOHN_DVS274'
p33
g19
sS'THIS_MEANS_WAR_DVS68'
p34
S'annotated'
p35
sS'DINNER_FOR_SCHMUCKS_DVS221'
p36
g9
sS'JUST_GO_WITH_IT_DVS125'
p37
g2
sS'IN_TIME_DVS453'
p38
g2
sS'JUST_GO_WITH_IT_DVS128'
p39
g27
sS'CHASING_MAVERICKS_DVS487'
p40
S'annotated'
p41
sS'WHATS_YOUR_NUMBER_DVS99'
p42
g41
sS'DEAR_JOHN_DVS475'
p43
g9
sS'COLOMBIANA_DVS906'
p44
g27
sS'THE_ART_OF_GETTING_BY_DVS308'
p45
g19
sS'THE_ART_OF_GETTING_BY_DVS303'
p46
g9
sS'THE_ART_OF_GETTING_BY_DVS300'
p47
g2
sS'THE_DESCENDANTS_DVS602'
p48
g2
sS'MORNING_GLORY_DVS337'
p49
S'annotated'
p50
sS'HUGO_DVS301'
p51
g2
sS'THE_GIRL_WITH_THE_DRAGON_TATTOO_DVS694'
p52
g19
sS'THE_GIRL_WITH_THE_DRAGON_TATTOO_DVS695'
p53
g19
sS'GREEN_ZONE_DVS64'
p54
g19
sS'THE_CALL_DVS901'
p55
g2
sS'PARENTAL_GUIDANCE_DVS327'
p56
g27
sS'LIFE_OF_PI_DVS806'
p57
g19
sS'CHASING_MAVERICKS_DVS327'
p58
g27
sS'CHARLIE_ST_CLOUD_DVS40'
p59
g9
sS'CHARLIE_ST_CLOUD_DVS43'
p60
g50
sS'A_GOOD_DAY_TO_DIE_HARD_DVS738'
p61
g7
sS'THOR_DVS644'
p62
S'annotated'
p63
sS'TOOTH_FAIRY_DVS572'
p64
g16
sS'THOR_DVS641'
p65
g63
sS'THE_BIG_YEAR_DVS236'
p66
g2
sS'ITS_COMPLICATED_DVS59'
p67
g9
sS'ITS_COMPLICATED_DVS360'
p68
g16
sS'BAD_TEACHER_DVS287'
p69
g2
sS'SANCTUM_DVS121'
p70
g2
sS'A_GOOD_DAY_TO_DIE_HARD_DVS821'
p71
g9
sS'TITANIC_2_DVS235'
p72
g9
sS'NO_STRINGS_ATTACHED_DVS330'
p73
g9
sS'TITANIC_2_DVS239'
p74
g9
sS'YOUNG_ADULT_DVS367'
p75
g2
sS'YOUNG_ADULT_DVS360'
p76
g9
sS'YOUNG_ADULT_DVS362'
p77
g19
sS'ZOOKEEPER_DVS343'
p78
g19
sS'YOUNG_ADULT_DVS216'
p79
g27
sS'PARENTAL_GUIDANCE_DVS213'
p80
g9
sS'HANSEL_GRETEL_WITCH_HUNTERS_DVS528'
p81
g9
sS'BLINDDATING_DVS20'
p82
g16
sS'BLINDDATING_DVS28'
p83
g16
sS'IN_TIME_DVS256'
p84
g19
sS'EASY_A_DVS90'
p85
g50
sS'ITS_COMPLICATED_DVS380'
p86
g19
sS'HOW_DO_YOU_KNOW_DVS97'
p87
g63
sS'SANCTUM_DVS237'
p88
g35
sS'TRUE_GRIT_DVS225'
p89
g2
sS'ZOMBIELAND_DVS581'
p90
g63
sS'THE_BOUNTY_HUNTER_DVS539'
p91
g7
sS'GHOST_RIDER_SPIRIT_OF_VENGEANCE_DVS503'
p92
g19
sS'JACK_AND_JILL_DVS84'
p93
g7
sS'GHOST_RIDER_SPIRIT_OF_VENGEANCE_DVS504'
p94
g19
sS'THE_BIG_YEAR_DVS72'
p95
g9
sS'A_GOOD_DAY_TO_DIE_HARD_DVS917'
p96
g35
sS'CHARLIE_ST_CLOUD_DVS151'
p97
g27
sS'CINDERELLA_MAN_DVS61'
p98
g9
sS'CINDERELLA_MAN_DVS67'
p99
g50
sS'CHARLIE_ST_CLOUD_DVS159'
p100
g19
sS'SNOW_FLOWER_FD_DVS377'
p101
g19
sS'TITANIC_2_DVS211'
p102
g9
sS'SNOW_FLOWER_FD_DVS373'
p103
g2
sS'PROMETHEUS_DVS97'
p104
g7
sS'A_THOUSAND_WORDS_DVS147'
p105
g9
sS'A_THOUSAND_WORDS_DVS144'
p106
g14
sS'A_THOUSAND_WORDS_DVS145'
p107
g2
sS'A_THOUSAND_WORDS_DVS140'
p108
g19
sS'ABRAHAM_LINCOLN_VAMPIRE_HUNTER_DVS635'
p109
g9
sS'ABRAHAM_LINCOLN_VAMPIRE_HUNTER_DVS632'
p110
g63
sS'WHATS_YOUR_NUMBER_DVS239'
p111
g27
sS'THE_ROOMMATE_DVS126'
p112
g9
sS'GHOST_RIDER_SPIRIT_OF_VENGEANCE_DVS186'
p113
g63
sS'GHOST_RIDER_SPIRIT_OF_VENGEANCE_DVS185'
p114
g9
sS'GHOST_RIDER_SPIRIT_OF_VENGEANCE_DVS182'
p115
g9
sS'TITANIC_1_DVS98'
p116
g19
sS'THOR_DVS517'
p117
g63
sS'SUPER_8_DVS510'
p118
g9
sS'SUPER_8_DVS511'
p119
g9
sS'SUPER_8_DVS513'
p120
g9
sS'XMEN_FIRST_CLASS_DVS1302'
p121
g9
sS'A_THOUSAND_WORDS_DVS325'
p122
g27
sS'BIG_MOMMAS_LIKE_FATHER_LIKE_SON_DVS368'
p123
g41
sS'THE_SITTER_DVS119'
p124
g19
sS'KARATE_KID_DVS946'
p125
g9
sS'BIG_MOMMAS_LIKE_FATHER_LIKE_SON_DVS568'
p126
g7
sS'BIG_MOMMAS_LIKE_FATHER_LIKE_SON_DVS565'
p127
g27
sS'KARATE_KID_DVS789'
p128
g27
sS'KARATE_KID_DVS788'
p129
g7
sS'IDES_OF_MARCH_DVS25'
p130
g7
sS'RUBY_SPARKS_DVS427'
p131
g27
sS'KARATE_KID_DVS548'
p132
g16
sS'A_THOUSAND_WORDS_DVS218'
p133
g16
sS'COLOMBIANA_DVS645'
p134
g19
sS'GET_HIM_TO_THE_GREEK_DVS129'
p135
g16
sS'RUBY_SPARKS_DVS192'
p136
g9
sS'HUGO_DVS58'
p137
g9
sS'HUGO_DVS59'
p138
g63
sS'HUGO_DVS57'
p139
g9
sS'JUST_GO_WITH_IT_DVS30'
p140
g41
sS'HUGO_DVS55'
p141
g9
sS'PUBLIC_ENEMIES_DVS198'
p142
g27
sS'TITANIC_1_DVS397'
p143
g2
sS'THE_ADVENTURES_OF_TINTIN_DVS417'
p144
g9
sS'DEAR_JOHN_DVS118'
p145
g35
sS'BIG_MOMMAS_LIKE_FATHER_LIKE_SON_DVS100'
p146
g27
sS'BIG_MOMMAS_LIKE_FATHER_LIKE_SON_DVS104'
p147
g50
sS'BIG_MOMMAS_LIKE_FATHER_LIKE_SON_DVS587'
p148
g9
sS'THE_ADVENTURES_OF_TINTIN_DVS675'
p149
g2
sS'MORNING_GLORY_DVS107'
p150
g19
sS'COLOMBIANA_DVS737'
p151
g50
sS'THE_GIRL_WITH_THE_DRAGON_TATTOO_DVS1421'
p152
g19
sS'CHASING_MAVERICKS_DVS752'
p153
g9
sS'HOW_DO_YOU_KNOW_DVS390'
p154
g9
sS'NANNY_MCPHEE_RETURNS_DVS339'
p155
g16
sS'TITANIC_1_DVS172'
p156
g19
sS'TITANIC_1_DVS173'
p157
g9
sS'NANNY_MCPHEE_RETURNS_DVS337'
p158
g9
sS'UGLY_TRUTH_DVS495'
p159
g7
sS'UGLY_TRUTH_DVS492'
p160
g41
sS'A_THOUSAND_WORDS_DVS453'
p161
g16
sS'40_YEAR_OLD_VIRGIN_DVS111'
p162
g19
sS'JULIE_AND_JULIA_DVS564'
p163
g41
sS'LAND_OF_THE_LOST_DVS148'
p164
g7
sS'SPARKLE_2012_DVS56'
p165
g19
sS'THE_GIRL_WITH_THE_DRAGON_TATTOO_DVS662'
p166
g9
sS'500DAYSOFSUMMER_DVS177'
p167
g14
sS'PUBLIC_ENEMIES_DVS539'
p168
g19
sS'LITTLE_FOCKERS_DVS224'
p169
g41
sS'DEAR_JOHN_DVS246'
p170
g9
sS'30_MINUTES_OR_LESS_DVS313'
p171
g9
sS'THE_WATCH_DVS433'
p172
g16
sS'GREEN_ZONE_DVS207'
p173
g19
sS'MORNING_GLORY_DVS81'
p174
g50
sS'MORNING_GLORY_DVS85'
p175
g9
sS'THE_ADVENTURES_OF_TINTIN_DVS42'
p176
g19
sS'TITANIC_2_DVS481'
p177
g7
sS'THE_GIRL_WITH_THE_DRAGON_TATTOO_DVS64'
p178
g9
sS'IN_TIME_DVS448'
p179
g2
sS'MR_POPPERS_PENGUINS_DVS140'
p180
g27
sS'THE_ART_OF_GETTING_BY_DVS201'
p181
g2
sS'THE_CALL_DVS573'
p182
g2
sS'CINDERELLA_MAN_DVS419'
p183
g16
sS'THINK_LIKE_A_MAN_DVS392'
p184
g41
sS'TOOTH_FAIRY_DVS185'
p185
g19
sS'THE_DESCENDANTS_DVS348'
p186
g7
sS'IN_TIME_DVS201'
p187
g19
sS'THINK_LIKE_A_MAN_DVS408'
p188
g2
sS'HUGO_DVS460'
p189
g19
sS'HUGO_DVS467'
p190
g16
sS'TITANIC_2_DVS139'
p191
g9
sS'MR_POPPERS_PENGUINS_DVS493'
p192
g2
sS'FRIENDS_WITH_BENEFITS_DVS249'
p193
g2
sS'THE_ART_OF_GETTING_BY_DVS115'
p194
g19
sS'THE_ART_OF_GETTING_BY_DVS112'
p195
g27
sS'A_GOOD_DAY_TO_DIE_HARD_DVS54'
p196
g14
sS'THE_CALL_DVS484'
p197
g19
sS'THE_BOUNTY_HUNTER_DVS189'
p198
g27
sS'ABRAHAM_LINCOLN_VAMPIRE_HUNTER_DVS68'
p199
g19
sS'ITS_COMPLICATED_DVS399'
p200
g27
sS'THE_VOW_DVS52'
p201
g19
sS'FLIGHT_DVS139'
p202
g2
sS'TRUE_GRIT_DVS141'
p203
g35
sS'BATTLE_LOS_ANGELES_DVS634'
p204
g19
sS'IDES_OF_MARCH_DVS34'
p205
g7
sS'THE_BOUNTY_HUNTER_DVS253'
p206
g27
sS'THOR_DVS189'
p207
g63
sS'BATTLE_LOS_ANGELES_DVS250'
p208
g41
sS'COLOMBIANA_DVS134'
p209
g16
sS'SANCTUM_DVS223'
p210
g2
sS'BURLESQUE_DVS383'
p211
g27
sS'TRUE_GRIT_DVS496'
p212
g19
sS'CHASING_MAVERICKS_DVS117'
p213
g9
sS'LIFE_OF_PI_DVS987'
p214
g35
sS'ZOMBIELAND_DVS224'
p215
g27
sS'GHOST_RIDER_SPIRIT_OF_VENGEANCE_DVS516'
p216
g9
sS'SNOW_FLOWER_FD_DVS964'
p217
g9
sS'CHARLIE_ST_CLOUD_DVS140'
p218
g9
sS'JUST_GO_WITH_IT_DVS258'
p219
g27
sS'ITS_COMPLICATED_DVS163'
p220
g16
sS'THINK_LIKE_A_MAN_DVS384'
p221
g2
sS'KARATE_KID_DVS319'
p222
g19
sS'TRUE_GRIT_DVS560'
p223
g2
sS'ABRAHAM_LINCOLN_VAMPIRE_HUNTER_DVS608'
p224
S'annotated'
p225
sS'LIFE_OF_PI_DVS676'
p226
g35
sS'LIFE_OF_PI_DVS675'
p227
g2
sS'ABRAHAM_LINCOLN_VAMPIRE_HUNTER_DVS604'
p228
g2
sS'ABRAHAM_LINCOLN_VAMPIRE_HUNTER_DVS287'
p229
g2
sS'ABRAHAM_LINCOLN_VAMPIRE_HUNTER_DVS286'
p230
g9
sS'CAPTAIN_AMERICA_DVS113'
p231
g2
sS'THE_ROOMMATE_DVS158'
p232
g9
sS'GHOST_RIDER_SPIRIT_OF_VENGEANCE_DVS191'
p233
g27
sS'TITANIC_2_DVS662'
p234
g9
sS'KATY_PERRY_PART_OF_ME_DVS139'
p235
g9
sS'THOR_DVS526'
p236
g63
sS'THOR_DVS523'
p237
g9
sS'COLOMBIANA_DVS221'
p238
g19
sS'LIFE_OF_PI_DVS270'
p239
g2
sS'TITANIC_2_DVS660'
p240
g7
sS'SUPER_8_DVS507'
p241
g9
sS'SUPER_8_DVS505'
p242
g50
sS'SUPER_8_DVS509'
p243
g50
sS'XMEN_FIRST_CLASS_DVS1316'
p244
g19
sS'ABRAHAM_LINCOLN_VAMPIRE_HUNTER_DVS516'
p245
g9
sS'XMEN_FIRST_CLASS_DVS926'
p246
g16
sS'ABRAHAM_LINCOLN_VAMPIRE_HUNTER_DVS462'
p247
g19
sS'KARATE_KID_DVS820'
p248
g19
sS'WE_BOUGHT_A_ZOO_DVS803'
p249
g16
sS'BIG_MOMMAS_LIKE_FATHER_LIKE_SON_DVS572'
p250
g19
sS'BIG_MOMMAS_LIKE_FATHER_LIKE_SON_DVS576'
p251
g9
sS'WE_BOUGHT_A_ZOO_DVS772'
p252
g9
sS'THE_WATCH_DVS373'
p253
g19
sS'KARATE_KID_DVS552'
p254
S'annotated'
p255
sS'WE_BOUGHT_A_ZOO_DVS571'
p256
g19
sS'30_MINUTES_OR_LESS_DVS323'
p257
g41
sS'SALT_DVS157'
p258
g9
sS'A_THOUSAND_WORDS_DVS264'
p259
g2
sS'THE_WATCH_DVS559'
p260
g50
sS'THE_BOUNTY_HUNTER_DVS57'
p261
g19
sS'UGLY_TRUTH_DVS554'
p262
g2
sS'WE_BOUGHT_A_ZOO_DVS596'
p263
g19
sS'LITTLE_FOCKERS_DVS41'
p264
g27
sS'SALT_DVS117'
p265
g19
sS'UGLY_TRUTH_DVS551'
p266
g41
sS'GET_HIM_TO_THE_GREEK_DVS111'
p267
g7
sS'NANNY_MCPHEE_RETURNS_DVS185'
p268
g9
sS'BLINDDATING_DVS148'
p269
g19
sS'TITANIC_1_DVS387'
p270
g35
sS'UGLY_TRUTH_DVS313'
p271
g7
sS'TITANIC_1_DVS381'
p272
g9
sS'TITANIC_1_DVS382'
p273
g63
sS'KATY_PERRY_PART_OF_ME_DVS245'
p274
g63
sS'THIS_MEANS_WAR_DVS232'
p275
g9
sS'BIG_MOMMAS_LIKE_FATHER_LIKE_SON_DVS119'
p276
g50
sS'500DAYSOFSUMMER_DVS349'
p277
g7
sS'THE_GIRL_WITH_THE_DRAGON_TATTOO_DVS699'
p278
g2
sS'THE_WATCH_DVS159'
p279
g9
sS'BATTLE_LOS_ANGELES_DVS409'
p280
g9
sS'GREEN_ZONE_DVS364'
p281
g9
sS'BIG_MOMMAS_LIKE_FATHER_LIKE_SON_DVS596'
p282
g2
sS'KARATE_KID_DVS1370'
p283
g7
sS'KARATE_KID_DVS1372'
p284
g7
sS'MORNING_GLORY_DVS132'
p285
g16
sS'DINNER_FOR_SCHMUCKS_DVS401'
p286
g41
sS'HOW_DO_YOU_KNOW_DVS540'
p287
g19
sS'DISTRICT_9_DVS505'
p288
g19
sS'HOW_DO_YOU_KNOW_DVS388'
p289
g19
sS'KARATE_KID_DVS1399'
p290
g9
sS'PROMETHEUS_DVS971'
p291
g9
sS'WHATS_YOUR_NUMBER_DVS716'
p292
g9
sS'TITANIC_1_DVS165'
p293
g2
sS'SPARKLE_2012_DVS566'
p294
g41
sS'BIG_MOMMAS_LIKE_FATHER_LIKE_SON_DVS603'
p295
g9
sS'BIG_MOMMAS_LIKE_FATHER_LIKE_SON_DVS609'
p296
g9
sS'LAND_OF_THE_LOST_DVS171'
p297
g7
sS'500DAYSOFSUMMER_DVS66'
p298
g41
sS'500DAYSOFSUMMER_DVS65'
p299
g14
sS'THE_GIRL_WITH_THE_DRAGON_TATTOO_DVS836'
p300
g19
sS'SPARKLE_2012_DVS364'
p301
g27
sS'COLOMBIANA_DVS576'
p302
g19
sS'SNOW_FLOWER_FD_DVS1202'
p303
g7
sS'WE_BOUGHT_A_ZOO_DVS66'
p304
g2
sS'IN_TIME_DVS523'
p305
g9
sS'DEATH_AT_A_FUNERAL_DVS253'
p306
g19
sS'THE_ADVENTURES_OF_TINTIN_DVS283'
p307
g9
sS'THE_VOW_DVS129'
p308
g27
sS'TITANIC_2_DVS124'
p309
g9
sS'MR_POPPERS_PENGUINS_DVS701'
p310
g9
sS'CINDERELLA_MAN_DVS131'
p311
g27
sS'SALT_DVS482'
p312
g16
sS'TOOTH_FAIRY_DVS178'
p313
g19
sS'MORNING_GLORY_DVS482'
p314
g19
sS'THE_GIRL_WITH_THE_DRAGON_TATTOO_DVS306'
p315
g19
sS'SPARKLE_2012_DVS180'
p316
g19
sS'CINDERELLA_MAN_DVS221'
p317
g9
sS'FLIGHT_DVS909'
p318
g255
sS'KARATE_KID_DVS1407'
p319
g63
sS'THINK_LIKE_A_MAN_DVS166'
p320
g19
sS'LITTLE_FOCKERS_DVS155'
p321
g19
sS'HUGO_DVS457'
p322
g7
sS'THOR_DVS664'
p323
g9
sS'HANSEL_GRETEL_WITCH_HUNTERS_DVS321'
p324
g27
sS'THE_ART_OF_GETTING_BY_DVS103'
p325
g19
sS'A_GOOD_DAY_TO_DIE_HARD_DVS203'
p326
g2
sS'THE_ART_OF_GETTING_BY_DVS105'
p327
g7
sS'HANSEL_GRETEL_WITCH_HUNTERS_DVS326'
p328
g27
sS'HANSEL_GRETEL_WITCH_HUNTERS_DVS437'
p329
g2
sS'THE_ART_OF_GETTING_BY_DVS213'
p330
g19
sS'JUST_GO_WITH_IT_DVS318'
p331
g63
sS'PUBLIC_ENEMIES_DVS78'
p332
g2
sS'DISTRICT_9_DVS793'
p333
g9
sS'THE_VOW_DVS62'
p334
g16
sS'TITANIC_2_DVS212'
p335
g19
sS'TITANIC_2_DVS210'
p336
g9
sS'BAD_TEACHER_DVS133'
p337
g50
sS'FRIENDS_WITH_BENEFITS_DVS344'
p338
g41
sS'FRIENDS_WITH_BENEFITS_DVS346'
p339
g2
sS'HANSEL_GRETEL_WITCH_HUNTERS_DVS502'
p340
g9
sS'TITANIC_2_DVS454'
p341
g2
sS'THE_DESCENDANTS_DVS797'
p342
g19
sS'IDES_OF_MARCH_DVS21'
p343
g7
sS'THINK_LIKE_A_MAN_DVS218'
p344
g27
sS'CAPTAIN_AMERICA_DVS233'
p345
g9
sS'CAPTAIN_AMERICA_DVS230'
p346
g50
sS'CAPTAIN_AMERICA_DVS236'
p347
g9
sS'A_GOOD_DAY_TO_DIE_HARD_DVS688'
p348
g2
sS'SOUL_SURFER_DVS256'
p349
g19
sS'BATTLE_LOS_ANGELES_DVS244'
p350
g27
sS'COLOMBIANA_DVS104'
p351
g255
sS'CHASING_MAVERICKS_DVS164'
p352
g2
sS'YOUNG_ADULT_DVS411'
p353
g2
sS'THE_BOUNTY_HUNTER_DVS558'
p354
g255
sS'CAPTAIN_AMERICA_DVS343'
p355
g9
sS'THOR_DVS441'
p356
g50
sS'CHARLIE_ST_CLOUD_DVS176'
p357
g19
sS'JUST_GO_WITH_IT_DVS260'
p358
g27
sS'JUST_GO_WITH_IT_DVS266'
p359
g2
sS'THE_ADVENTURES_OF_TINTIN_DVS577'
p360
g9
sS'ITS_COMPLICATED_DVS154'
p361
g27
sS'PERCY_JACKSON_LIGHTENING_THIEF_DVS266'
p362
g9
sS'GHOST_RIDER_SPIRIT_OF_VENGEANCE_DVS525'
p363
g9
sS'GHOST_RIDER_SPIRIT_OF_VENGEANCE_DVS527'
p364
g9
sS'CAPTAIN_AMERICA_DVS560'
p365
g9
sS'LIFE_OF_PI_DVS888'
p366
g19
sS'GHOST_RIDER_SPIRIT_OF_VENGEANCE_DVS528'
p367
g9
sS'30_MINUTES_OR_LESS_DVS208'
p368
g225
sS'THE_ROOMMATE_DVS142'
p369
g2
sS'PUBLIC_ENEMIES_DVS96'
p370
g9
sS'XMEN_FIRST_CLASS_DVS1084'
p371
g19
sS'JACK_AND_JILL_DVS155'
p372
g9
sS'KATY_PERRY_PART_OF_ME_DVS156'
p373
g9
sS'GREEN_ZONE_DVS180'
p374
g16
sS'KATY_PERRY_PART_OF_ME_DVS55'
p375
g7
sS'SOUL_SURFER_DVS253'
p376
g27
sS'KARATE_KID_DVS969'
p377
g9
sS'KARATE_KID_DVS965'
p378
g19
sS'KARATE_KID_DVS964'
p379
g2
sS'FLIGHT_DVS488'
p380
g2
sS'KARATE_KID_DVS769'
p381
g9
sS'XMEN_FIRST_CLASS_DVS952'
p382
g19
sS'IN_TIME_DVS950'
p383
g19
sS'THE_WATCH_DVS302'
p384
g63
sS'IRON_MAN_2_DVS593'
p385
g9
sS'BIG_MOMMAS_LIKE_FATHER_LIKE_SON_DVS294'
p386
g2
sS'IRON_MAN_2_DVS594'
p387
g9
sS'30_MINUTES_OR_LESS_DVS337'
p388
g9
sS'EASY_A_DVS133'
p389
g27
sS'SORCERERS_APPRENTICE_DVS416'
p390
g19
sS'A_THOUSAND_WORDS_DVS273'
p391
g16
sS'SUPER_8_DVS405'
p392
g9
sS'THE_ADVENTURES_OF_TINTIN_DVS273'
p393
g2
sS'ZOMBIELAND_DVS49'
p394
g9
sS'TITANIC_1_DVS286'
p395
g2
sS'THE_WATCH_DVS520'
p396
g9
sS'HOW_DO_YOU_KNOW_DVS151'
p397
g9
sS'HOW_DO_YOU_KNOW_DVS710'
p398
g16
sS'UGLY_TRUTH_DVS363'
p399
g41
sS'THE_WATCH_DVS410'
p400
g27
sS'THE_ADVENTURES_OF_TINTIN_DVS473'
p401
g63
sS'TITANIC_1_DVS374'
p402
g9
sS'WE_BOUGHT_A_ZOO_DVS124'
p403
g19
sS'RUBY_SPARKS_DVS574'
p404
g50
sS'THE_SOCIAL_NETWORK_DVS86'
p405
g41
sS'CHASING_MAVERICKS_DVS412'
p406
g2
sS'500DAYSOFSUMMER_DVS375'
p407
g14
sS'WE_BOUGHT_A_ZOO_DVS467'
p408
g19
sS'TITANIC_1_DVS305'
p409
g9
sS'HANSEL_GRETEL_WITCH_HUNTERS_DVS135'
p410
g9
sS'PROMETHEUS_DVS365'
p411
g9
sS'RUBY_SPARKS_DVS378'
p412
g9
sS'TITANIC_1_DVS115'
p413
g9
sS'TITANIC_1_DVS116'
p414
g9
sS'SNOW_FLOWER_FD_DVS1053'
p415
g2
sS'TITANIC_1_DVS112'
p416
g2
sS'THE_SOCIAL_NETWORK_DVS163'
p417
g19
sS'HOW_DO_YOU_KNOW_DVS442'
p418
g16
sS'BURLESQUE_DVS213'
p419
g63
sS'LAND_OF_THE_LOST_DVS160'
p420
g27
sS'SPARKLE_2012_DVS228'
p421
g9
sS'THE_GIRL_WITH_THE_DRAGON_TATTOO_DVS822'
p422
g27
sS'500DAYSOFSUMMER_DVS150'
p423
g14
sS'DEAR_JOHN_DVS719'
p424
g19
sS'THE_BIG_YEAR_DVS587'
p425
g9
sS'21_JUMP_STREET_DVS36'
p426
g9
sS'BURLESQUE_DVS610'
p427
g9
sS'HANSEL_GRETEL_WITCH_HUNTERS_DVS484'
p428
g9
sS'INSIDE_MAN_DVS32'
p429
g9
sS'MORNING_GLORY_DVS68'
p430
g2
sS'THE_GIRL_WITH_THE_DRAGON_TATTOO_DVS220'
p431
g50
sS'YOUNG_ADULT_DVS90'
p432
g9
sS'TOOTH_FAIRY_DVS169'
p433
g2
sS'SUPER_8_DVS565'
p434
g9
sS'SALT_DVS107'
p435
g19
sS'COLOMBIANA_DVS976'
p436
g2
sS'COLOMBIANA_DVS977'
p437
g2
sS'TITANIC_2_DVS739'
p438
g9
sS'BURLESQUE_DVS565'
p439
g41
sS'TITANIC_2_DVS732'
p440
g2
sS'HUGO_DVS441'
p441
g9
sS'A_GOOD_DAY_TO_DIE_HARD_DVS560'
p442
g9
sS'IN_TIME_DVS556'
p443
g9
sS'THE_SITTER_DVS83'
p444
g9
sS'THE_SITTER_DVS84'
p445
g9
sS'THE_DESCENDANTS_DVS148'
p446
g35
sS'THINK_LIKE_A_MAN_DVS518'
p447
g19
sS'TITANIC_1_DVS280'
p448
g9
sS'THE_ART_OF_GETTING_BY_DVS263'
p449
g19
sS'TOOTH_FAIRY_DVS300'
p450
g27
sS'THE_BOUNTY_HUNTER_DVS432'
p451
g19
sS'PERCY_JACKSON_LIGHTENING_THIEF_DVS409'
p452
g2
sS'A_GOOD_DAY_TO_DIE_HARD_DVS304'
p453
g50
sS'ZOMBIELAND_DVS685'
p454
g63
sS'UGLY_TRUTH_DVS367'
p455
g16
sS'HANSEL_GRETEL_WITCH_HUNTERS_DVS422'
p456
g27
sS'MR_POPPERS_PENGUINS_DVS580'
p457
g16
sS'HANSEL_GRETEL_WITCH_HUNTERS_DVS426'
p458
g27
sS'TITANIC_2_DVS200'
p459
g19
sS'TOOTH_FAIRY_DVS436'
p460
g7
sS'TITANIC_2_DVS207'
p461
g9
sS'GREEN_ZONE_DVS34'
p462
g27
sS'THE_ADVENTURES_OF_TINTIN_DVS61'
p463
g2
sS'BURLESQUE_DVS395'
p464
g2
sS'TITANIC_2_DVS616'
p465
g9
sS'MR_POPPERS_PENGUINS_DVS344'
p466
g50
sS'CAPTAIN_AMERICA_DVS223'
p467
g9
sS'CAPTAIN_AMERICA_DVS226'
p468
g9
sS'DISTRICT_9_DVS546'
p469
g19
sS'COLOMBIANA_DVS444'
p470
g63
sS'PERCY_JACKSON_LIGHTENING_THIEF_DVS313'
p471
g9
sS'PERCY_JACKSON_LIGHTENING_THIEF_DVS312'
p472
g9
sS'ROBIN_HOOD_DVS134'
p473
g9
sS'LIFE_OF_PI_DVS509'
p474
g2
sS'CAPTAIN_AMERICA_DVS355'
p475
g9
sS'LIFE_OF_PI_DVS506'
p476
g2
sS'IDES_OF_MARCH_DVS89'
p477
g16
sS'CAPTAIN_AMERICA_DVS352'
p478
g9
sS'A_GOOD_DAY_TO_DIE_HARD_DVS789'
p479
g9
sS'CHARLIE_ST_CLOUD_DVS168'
p480
g19
sS'CHARLIE_ST_CLOUD_DVS169'
p481
g50
sS'CHARLIE_ST_CLOUD_DVS162'
p482
g9
sS'CHARLIE_ST_CLOUD_DVS163'
p483
g50
sS'ABRAHAM_LINCOLN_VAMPIRE_HUNTER_DVS665'
p484
g9
sS'PERCY_JACKSON_LIGHTENING_THIEF_DVS272'
p485
g2
sS'COLOMBIANA_DVS209'
p486
g19
sS'ITS_COMPLICATED_DVS145'
p487
g7
sS'JACK_AND_JILL_DVS30'
p488
g7
sS'SANCTUM_DVS373'
p489
g19
sS'MR_POPPERS_PENGUINS_DVS612'
p490
g19
sS'LIFE_OF_PI_DVS472'
p491
g2
sS'ZOMBIELAND_DVS666'
p492
g50
sS'DISTRICT_9_DVS769'
p493
g9
sS'CAPTAIN_AMERICA_DVS174'
p494
g19
sS'THOR_DVS542'
p495
g9
sS'NO_STRINGS_ATTACHED_DVS388'
p496
g9
sS'KATY_PERRY_PART_OF_ME_DVS48'
p497
g7
sS'THE_ROOMMATE_DVS197'
p498
g9
sS'NO_STRINGS_ATTACHED_DVS122'
p499
g41
sS'TOOTH_FAIRY_DVS892'
p500
g16
sS'WHATS_YOUR_NUMBER_DVS575'
p501
g9
sS'THE_WATCH_DVS52'
p502
g9
sS'XMEN_FIRST_CLASS_DVS765'
p503
g27
sS'IDES_OF_MARCH_DVS191'
p504
g27
sS'WHATS_YOUR_NUMBER_DVS485'
p505
g16
sS'ABRAHAM_LINCOLN_VAMPIRE_HUNTER_DVS404'
p506
g9
sS'CINDERELLA_MAN_DVS69'
p507
g9
sS'FLIGHT_DVS1244'
p508
g41
sS'THE_WATCH_DVS319'
p509
g9
sS'CHRONICLE_DVS107'
p510
g9
sS'500DAYSOFSUMMER_DVS367'
p511
g19
sS'THE_DESCENDANTS_DVS39'
p512
g16
sS'SUPER_8_DVS412'
p513
g9
sS'THE_DESCENDANTS_DVS35'
p514
g16
sS'HUGO_DVS67'
p515
g2
sS'HUGO_DVS66'
p516
g2
sS'A_THOUSAND_WORDS_DVS246'
p517
g19
sS'A_THOUSAND_WORDS_DVS240'
p518
g9
sS'HUGO_DVS61'
p519
g9
sS'RUBY_SPARKS_DVS142'
p520
g9
sS'TITANIC_1_DVS290'
p521
g9
sS'KARATE_KID_DVS971'
p522
g27
sS'CHARLIE_ST_CLOUD_DVS289'
p523
g9
sS'XMEN_FIRST_CLASS_DVS1067'
p524
g2
sS'WE_BOUGHT_A_ZOO_DVS138'
p525
g19
sS'COLOMBIANA_DVS763'
p526
g9
sS'BATTLE_LOS_ANGELES_DVS467'
p527
g16
sS'KARATE_KID_DVS1314'
p528
g9
sS'GREEN_ZONE_DVS347'
p529
g19
sS'SUPER_8_DVS306'
p530
g9
sS'WE_BOUGHT_A_ZOO_DVS626'
p531
g9
sS'THIS_MEANS_WAR_DVS458'
p532
g63
sS'SPARKLE_2012_DVS504'
p533
g19
sS'SPARKLE_2012_DVS507'
p534
g9
sS'THE_SOCIAL_NETWORK_DVS112'
p535
g9
sS'XMEN_FIRST_CLASS_DVS1111'
p536
g7
sS'ITS_COMPLICATED_DVS7'
p537
g41
sS'KARATE_KID_DVS1081'
p538
g9
sS'UGLY_TRUTH_DVS603'
p539
g19
sS'GREEN_ZONE_DVS236'
p540
g19
sS'IRON_MAN_2_DVS43'
p541
g9
sS'THIS_MEANS_WAR_DVS26'
p542
g63
sS'THIS_MEANS_WAR_DVS22'
p543
g9
sS'BATTLE_LOS_ANGELES_DVS43'
p544
g27
sS'CHASING_MAVERICKS_DVS214'
p545
g63
sS'THE_VOW_DVS696'
p546
g19
sS'DEAR_JOHN_DVS631'
p547
g19
sS'A_THOUSAND_WORDS_DVS146'
p548
g14
sS'21_JUMP_STREET_DVS42'
p549
g9
sS'500DAYSOFSUMMER_DVS143'
p550
g14
sS'HUGO_DVS89'
p551
g16
sS'DEATH_AT_A_FUNERAL_DVS275'
p552
g2
sS'UGLY_TRUTH_DVS594'
p553
g19
sS'CINDERELLA_MAN_DVS335'
p554
g9
sS'TITANIC_1_DVS117'
p555
g9
sS'LITTLE_FOCKERS_DVS137'
p556
g27
sS'SPARKLE_2012_DVS232'
p557
g9
sS'THINK_LIKE_A_MAN_DVS348'
p558
g41
sS'SUPER_8_DVS125'
p559
g9
sS'MORNING_GLORY_DVS465'
p560
g9
sS'SPARKLE_2012_DVS239'
p561
g7
sS'TOOTH_FAIRY_DVS150'
p562
g19
sS'BURLESQUE_DVS571'
p563
g27
sS'KARATE_KID_DVS1424'
p564
g63
sS'THE_DESCENDANTS_DVS313'
p565
g19
sS'KARATE_KID_DVS1427'
p566
g50
sS'THE_BOUNTY_HUNTER_DVS398'
p567
g16
sS'HUGO_DVS128'
p568
g9
sS'HUGO_DVS438'
p569
g2
sS'MORNING_GLORY_DVS208'
p570
g9
sS'BRUNO_DVS127'
p571
g9
sS'MR_POPPERS_PENGUINS_DVS171'
p572
g9
sS'A_GOOD_DAY_TO_DIE_HARD_DVS171'
p573
g7
sS'THE_CALL_DVS218'
p574
g9
sS'THE_SOCIAL_NETWORK_DVS299'
p575
g9
sS'TOOTH_FAIRY_DVS330'
p576
g19
sS'HUGO_DVS722'
p577
g9
sS'HUGO_DVS721'
p578
g9
sS'HUGO_DVS726'
p579
g9
sS'HUGO_DVS729'
p580
g9
sS'THE_VOW_DVS85'
p581
g7
sS'PARENTAL_GUIDANCE_DVS252'
p582
g16
sS'PUBLIC_ENEMIES_DVS28'
p583
g19
sS'PUBLIC_ENEMIES_DVS50'
p584
g9
sS'PUBLIC_ENEMIES_DVS53'
p585
g9
sS'PUBLIC_ENEMIES_DVS52'
p586
g9
sS'DEAR_JOHN_DVS28'
p587
g35
sS'21_JUMP_STREET_DVS395'
p588
g19
sS'LAND_OF_THE_LOST_DVS242'
p589
g9
sS'LAND_OF_THE_LOST_DVS246'
p590
g50
sS'CAPTAIN_AMERICA_DVS218'
p591
g50
sS'THE_CALL_DVS742'
p592
g27
sS'WHATS_YOUR_NUMBER_DVS77'
p593
g19
sS'CAPTAIN_AMERICA_DVS217'
p594
g9
sS'CAPTAIN_AMERICA_DVS211'
p595
g9
sS'21_JUMP_STREET_DVS448'
p596
g9
sS'JUST_GO_WITH_IT_DVS208'
p597
g50
sS'THE_BOUNTY_HUNTER_DVS462'
p598
g9
sS'CINDERELLA_MAN_DVS20'
p599
g9
sS'GHOST_RIDER_SPIRIT_OF_VENGEANCE_DVS322'
p600
g16
sS'GHOST_RIDER_SPIRIT_OF_VENGEANCE_DVS320'
p601
g50
sS'COLOMBIANA_DVS166'
p602
g63
sS'COLOMBIANA_DVS160'
p603
g9
sS'21_JUMP_STREET_DVS287'
p604
g14
sS'ZOMBIELAND_DVS274'
p605
g50
sS'THE_BOUNTY_HUNTER_DVS578'
p606
g7
sS'JUST_GO_WITH_IT_DVS347'
p607
g7
sS'ROBIN_HOOD_DVS214'
p608
g9
sS'21_JUMP_STREET_DVS665'
p609
g50
sS'GREEN_ZONE_DVS437'
p610
g9
sS'CAPTAIN_AMERICA_DVS540'
p611
g9
sS'CAPTAIN_AMERICA_DVS542'
p612
g255
sS'CAPTAIN_AMERICA_DVS545'
p613
g9
sS'ZOMBIELAND_DVS650'
p614
g9
sS'GHOST_RIDER_SPIRIT_OF_VENGEANCE_DVS252'
p615
g2
sS'ABRAHAM_LINCOLN_VAMPIRE_HUNTER_DVS277'
p616
g9
sS'JACK_AND_JILL_DVS402'
p617
g2
sS'DISTRICT_9_DVS207'
p618
g7
sS'FRIENDS_WITH_BENEFITS_DVS384'
p619
g255
sS'EASY_A_DVS51'
p620
g27
sS'BATTLE_LOS_ANGELES_DVS682'
p621
g50
sS'JULIE_AND_JULIA_DVS88'
p622
g27
sS'WHATS_YOUR_NUMBER_DVS743'
p623
g9
sS'WHATS_YOUR_NUMBER_DVS740'
p624
g7
sS'LIFE_OF_PI_DVS222'
p625
g19
sS'THE_ROOMMATE_DVS347'
p626
g19
sS'TITANIC_1_DVS37'
p627
g9
sS'SANCTUM_DVS417'
p628
g16
sS'SANCTUM_DVS410'
p629
g35
sS'SORCERERS_APPRENTICE_DVS99'
p630
g19
sS'KARATE_KID_DVS742'
p631
g19
sS'THE_WATCH_DVS328'
p632
g41
sS'21_JUMP_STREET_DVS266'
p633
g27
sS'ITS_COMPLICATED_DVS280'
p634
g7
sS'THE_WATCH_DVS322'
p635
g9
sS'21_JUMP_STREET_DVS269'
p636
g9
sS'SUPER_8_DVS229'
p637
g9
sS'LIFE_OF_PI_DVS139'
p638
g19
sS'IRON_MAN_2_DVS557'
p639
g9
sS'RUBY_SPARKS_DVS488'
p640
g9
sS'BLINDDATING_DVS196'
p641
g2
sS'TITANIC_1_DVS76'
p642
g9
sS'LAND_OF_THE_LOST_DVS29'
p643
g27
sS'DINNER_FOR_SCHMUCKS_DVS75'
p644
g16
sS'THE_ADVENTURES_OF_TINTIN_DVS457'
p645
g27
sS'CHARLIE_ST_CLOUD_DVS290'
p646
g9
sS'TITANIC_1_DVS357'
p647
g9
sS'UGLY_TRUTH_DVS340'
p648
g2
sS'BLINDDATING_DVS285'
p649
g9
sS'COLOMBIANA_DVS410'
p650
g2
sS'NANNY_MCPHEE_RETURNS_DVS35'
p651
g7
sS'THE_WATCH_DVS184'
p652
g2
sS'BURLESQUE_DVS746'
p653
g9
sS'LARRY_CROWNE_DVS138'
p654
g19
sS'HOW_DO_YOU_KNOW_DVS283'
p655
g27
sS'KARATE_KID_DVS1305'
p656
g9
sS'CINDERELLA_MAN_DVS37'
p657
g9
sS'THE_ADVENTURES_OF_TINTIN_DVS632'
p658
g9
sS'THE_ADVENTURES_OF_TINTIN_DVS636'
p659
g2
sS'NANNY_MCPHEE_RETURNS_DVS377'
p660
g2
sS'WE_BOUGHT_A_ZOO_DVS653'
p661
g9
sS'KATY_PERRY_PART_OF_ME_DVS321'
p662
g7
sS'TITANIC_1_DVS133'
p663
g9
sS'TITANIC_1_DVS130'
p664
g19
sS'500DAYSOFSUMMER_DVS227'
p665
g9
sS'KARATE_KID_DVS1091'
p666
g19
sS'NO_STRINGS_ATTACHED_DVS55'
p667
g9
sS'KARATE_KID_DVS1230'
p668
g19
sS'THIS_MEANS_WAR_DVS481'
p669
g255
sS'NANNY_MCPHEE_RETURNS_DVS390'
p670
g16
sS'THIS_MEANS_WAR_DVS34'
p671
g19
sS'BATTLE_LOS_ANGELES_DVS76'
p672
g19
sS'IN_TIME_DVS607'
p673
g2
sS'TOOTH_FAIRY_DVS28'
p674
g19
sS'500DAYSOFSUMMER_DVS133'
p675
g14
sS'SANCTUM_DVS40'
p676
g27
sS'BATTLE_LOS_ANGELES_DVS527'
p677
g19
sS'BATTLE_LOS_ANGELES_DVS525'
p678
g19
sS'BATTLE_LOS_ANGELES_DVS524'
p679
g41
sS'BATTLE_LOS_ANGELES_DVS523'
p680
g9
sS'SPARKLE_2012_DVS394'
p681
g16
sS'MORNING_GLORY_DVS49'
p682
g41
sS'MORNING_GLORY_DVS46'
p683
g16
sS'THE_GIRL_WITH_THE_DRAGON_TATTOO_DVS1188'
p684
g9
sS'40_YEAR_OLD_VIRGIN_DVS209'
p685
g7
sS'THOR_DVS316'
p686
g9
sS'SUPER_8_DVS173'
p687
g9
sS'MORNING_GLORY_DVS476'
p688
g9
sS'MORNING_GLORY_DVS475'
p689
g9
sS'SUPER_8_DVS116'
p690
g9
sS'RUBY_SPARKS_DVS28'
p691
g9
sS'THE_ADVENTURES_OF_TINTIN_DVS69'
p692
g9
sS'CHARLIE_ST_CLOUD_DVS241'
p693
g9
sS'KARATE_KID_DVS1430'
p694
g7
sS'CHRONICLE_DVS30'
p695
g7
sS'A_GOOD_DAY_TO_DIE_HARD_DVS541'
p696
g9
sS'THE_CALL_DVS281'
p697
g19
sS'THE_ADVENTURES_OF_TINTIN_DVS91'
p698
g9
sS'IN_TIME_DVS574'
p699
g19
sS'THE_DESCENDANTS_DVS129'
p700
g2
sS'INSIDE_MAN_DVS318'
p701
g7
sS'IN_TIME_DVS778'
p702
g9
sS'CINDERELLA_MAN_DVS450'
p703
g7
sS'CINDERELLA_MAN_DVS456'
p704
g16
sS'MORNING_GLORY_DVS210'
p705
g9
sS'MORNING_GLORY_DVS216'
p706
g9
sS'MORNING_GLORY_DVS215'
p707
g9
sS'THE_GIRL_WITH_THE_DRAGON_TATTOO_DVS776'
p708
g27
sS'HUGO_DVS736'
p709
g2
sS'HUGO_DVS737'
p710
g27
sS'IN_TIME_DVS372'
p711
g35
sS'FRIENDS_WITH_BENEFITS_DVS177'
p712
g7
sS'ZOMBIELAND_DVS467'
p713
g16
sS'BLINDDATING_DVS79'
p714
g9
sS'FRIENDS_WITH_BENEFITS_DVS178'
p715
g7
sS'HANSEL_GRETEL_WITCH_HUNTERS_DVS440'
p716
g2
sS'THE_CALL_DVS199'
p717
g16
sS'CHASING_MAVERICKS_DVS1073'
p718
g27
sS'FRIENDS_WITH_BENEFITS_DVS26'
p719
g9
sS'TITANIC_2_DVS461'
p720
g19
sS'SALT_DVS81'
p721
g7
sS'EASY_A_DVS263'
p722
g9
sS'THE_WATCH_DVS543'
p723
g9
sS'XMEN_FIRST_CLASS_DVS567'
p724
g27
sS'21_JUMP_STREET_DVS454'
p725
g19
sS'PERCY_JACKSON_LIGHTENING_THIEF_DVS338'
p726
g2
sS'MR_POPPERS_PENGUINS_DVS434'
p727
g255
sS'SORCERERS_APPRENTICE_DVS169'
p728
g9
sS'GHOST_RIDER_SPIRIT_OF_VENGEANCE_DVS333'
p729
g2
sS'COLOMBIANA_DVS171'
p730
g9
sS'BATTLE_LOS_ANGELES_DVS325'
p731
g2
sS'SORCERERS_APPRENTICE_DVS162'
p732
g16
sS'SORCERERS_APPRENTICE_DVS163'
p733
g7
sS'SUPER_8_DVS581'
p734
g9
sS'GREEN_ZONE_DVS18'
p735
g9
sS'JACK_AND_JILL_DVS322'
p736
g7
sS'THE_BOUNTY_HUNTER_DVS563'
p737
g19
sS'NO_STRINGS_ATTACHED_DVS97'
p738
g27
sS'IDES_OF_MARCH_DVS284'
p739
g2
sS'BATTLE_LOS_ANGELES_DVS328'
p740
g9
sS'ROBIN_HOOD_DVS202'
p741
g19
sS'ZOOKEEPER_DVS427'
p742
g19
sS'KARATE_KID_DVS351'
p743
g19
sS'ABRAHAM_LINCOLN_VAMPIRE_HUNTER_DVS640'
p744
g50
sS'XMEN_FIRST_CLASS_DVS1261'
p745
g9
sS'21_JUMP_STREET_DVS182'
p746
g9
sS'CAPTAIN_AMERICA_DVS556'
p747
g9
sS'THE_ROOMMATE_DVS98'
p748
g255
sS'ZOMBIELAND_DVS312'
p749
g7
sS'JACK_AND_JILL_DVS436'
p750
g16
sS'JACK_AND_JILL_DVS434'
p751
g41
sS'THE_VOW_DVS201'
p752
g9
sS'PARENTAL_GUIDANCE_DVS84'
p753
g9
sS'EASY_A_DVS23'
p754
g19
sS'PERCY_JACKSON_LIGHTENING_THIEF_DVS258'
p755
g9
sS'SUPER_8_DVS491'
p756
g9
sS'JACK_AND_JILL_DVS184'
p757
g9
sS'WHATS_YOUR_NUMBER_DVS750'
p758
g9
sS'TITANIC_1_DVS250'
p759
g9
sS'CHASING_MAVERICKS_DVS335'
p760
g50
sS'CHASING_MAVERICKS_DVS331'
p761
g255
sS'KATY_PERRY_PART_OF_ME_DVS192'
p762
g2
sS'IN_TIME_DVS908'
p763
g9
sS'SOUL_SURFER_DVS226'
p764
g41
sS'JULIE_AND_JULIA_DVS316'
p765
g7
sS'THE_ROOMMATE_DVS400'
p766
g19
sS'THE_WATCH_DVS35'
p767
g9
sS'SNOW_FLOWER_FD_DVS495'
p768
g19
sS'BAD_TEACHER_DVS98'
p769
g27
sS'CAPTAIN_AMERICA_DVS554'
p770
g9
sS'WHATS_YOUR_NUMBER_DVS354'
p771
g16
sS'TITANIC_1_DVS556'
p772
g19
sS'TITANIC_2_DVS31'
p773
g9
sS'BURLESQUE_DVS360'
p774
g2
sS'COLOMBIANA_DVS314'
p775
g16
sS'CHARLIE_ST_CLOUD_DVS352'
p776
g19
sS'IDES_OF_MARCH_DVS129'
p777
g19
sS'KARATE_KID_DVS1159'
p778
g2
sS'NANNY_MCPHEE_RETURNS_DVS147'
p779
g19
sS'NANNY_MCPHEE_RETURNS_DVS493'
p780
g50
sS'IRON_MAN_2_DVS546'
p781
g9
sS'UGLY_TRUTH_DVS355'
p782
g16
sS'30_MINUTES_OR_LESS_DVS251'
p783
g9
sS'WE_BOUGHT_A_ZOO_DVS420'
p784
g16
sS'THOR_DVS82'
p785
g9
sS'TITANIC_1_DVS342'
p786
g9
sS'CHASING_MAVERICKS_DVS428'
p787
g2
sS'THE_ADVENTURES_OF_TINTIN_DVS489'
p788
g35
sS'SUPER_8_DVS94'
p789
g9
sS'HOW_DO_YOU_KNOW_DVS295'
p790
g9
sS'JULIE_AND_JULIA_DVS605'
p791
g19
sS'THE_ADVENTURES_OF_TINTIN_DVS480'
p792
g9
sS'THE_ADVENTURES_OF_TINTIN_DVS487'
p793
g63
sS'ITS_COMPLICATED_DVS16'
p794
g41
sS'COLOMBIANA_DVS733'
p795
g19
sS'ZOMBIELAND_DVS646'
p796
g9
sS'JULIE_AND_JULIA_DVS52'
p797
g19
sS'PROMETHEUS_DVS933'
p798
g50
sS'PROMETHEUS_DVS932'
p799
g9
sS'TITANIC_1_DVS127'
p800
g9
sS'GROWN_UPS_DVS15'
p801
g9
sS'XMEN_FIRST_CLASS_DVS1137'
p802
g2
sS'SPARKLE_2012_DVS526'
p803
g7
sS'SPARKLE_2012_DVS521'
p804
g41
sS'THE_ADVENTURES_OF_TINTIN_DVS155'
p805
g9
sS'30_MINUTES_OR_LESS_DVS100'
p806
g50
sS'FLIGHT_DVS66'
p807
g9
sS'UGLY_TRUTH_DVS623'
p808
g27
sS'SUPER_8_DVS213'
p809
g63
sS'500DAYSOFSUMMER_DVS120'
p810
g14
sS'500DAYSOFSUMMER_DVS433'
p811
g14
sS'THE_GUILT_TRIP_DVS281'
p812
g9
sS'THE_GUILT_TRIP_DVS283'
p813
g41
sS'PUBLIC_ENEMIES_DVS568'
p814
g9
sS'THE_GUILT_TRIP_DVS159'
p815
g16
sS'TOOTH_FAIRY_DVS306'
p816
g9
sS'THE_ART_OF_GETTING_BY_DVS265'
p817
g9
sS'MORNING_GLORY_DVS55'
p818
g9
sS'TITANIC_2_DVS747'
p819
g9
sS'40_YEAR_OLD_VIRGIN_DVS218'
p820
g9
sS'HUGO_DVS632'
p821
g50
sS'CINDERELLA_MAN_DVS264'
p822
g9
sS'NO_STRINGS_ATTACHED_DVS100'
p823
g9
sS'BRUNO_DVS109'
p824
g19
sS'COLOMBIANA_DVS817'
p825
g9
sS'THE_GIRL_WITH_THE_DRAGON_TATTOO_DVS347'
p826
g50
sS'A_GOOD_DAY_TO_DIE_HARD_DVS559'
p827
g14
sS'MR_POPPERS_PENGUINS_DVS609'
p828
g16
sS'BAD_TEACHER_DVS310'
p829
g16
sS'CHASING_MAVERICKS_DVS859'
p830
g255
sS'INSIDE_MAN_DVS257'
p831
g27
sS'HANSEL_GRETEL_WITCH_HUNTERS_DVS272'
p832
g27
sS'MR_POPPERS_PENGUINS_DVS114'
p833
g35
sS'TITANIC_2_DVS672'
p834
g9
sS'MR_POPPERS_PENGUINS_DVS111'
p835
g35
sS'BURLESQUE_DVS429'
p836
g2
sS'HUGO_DVS705'
p837
g19
sS'IN_TIME_DVS909'
p838
g19
sS'WHATS_YOUR_NUMBER_DVS576'
p839
g19
sS'MR_POPPERS_PENGUINS_DVS281'
p840
g41
sS'CINDERELLA_MAN_DVS481'
p841
g16
sS'THE_CALL_DVS671'
p842
g7
sS'PUBLIC_ENEMIES_DVS31'
p843
g9
sS'THOR_DVS151'
p844
g63
sS'THINK_LIKE_A_MAN_DVS259'
p845
g7
sS'THE_DESCENDANTS_DVS448'
p846
g19
sS'BURLESQUE_DVS85'
p847
g16
sS'THE_BIG_YEAR_DVS203'
p848
g19
sS'YOUNG_ADULT_DVS49'
p849
g19
sS'HUGO_DVS148'
p850
g19
sS'CHRONICLE_DVS27'
p851
g7
sS'HUGO_DVS143'
p852
g9
sS'TITANIC_2_DVS237'
p853
g9
sS'CHARLIE_ST_CLOUD_DVS136'
p854
g19
sS'21_JUMP_STREET_DVS462'
p855
g9
sS'21_JUMP_STREET_DVS464'
p856
g9
sS'GHOST_RIDER_SPIRIT_OF_VENGEANCE_DVS308'
p857
g19
sS'BATTLE_LOS_ANGELES_DVS202'
p858
g7
sS'IN_TIME_DVS860'
p859
g19
sS'A_THOUSAND_WORDS_DVS19'
p860
g7
sS'ZOOKEEPER_DVS214'
p861
g2
sS'IN_TIME_DVS176'
p862
g19
sS'CHASING_MAVERICKS_DVS591'
p863
g7
sS'HANSEL_GRETEL_WITCH_HUNTERS_DVS128'
p864
g27
sS'THE_BOUNTY_HUNTER_DVS352'
p865
g63
sS'ZOMBIELAND_DVS529'
p866
g16
sS'LARRY_CROWNE_DVS13'
p867
g27
sS'CAPTAIN_AMERICA_DVS308'
p868
g9
sS'JACK_AND_JILL_DVS332'
p869
g50
sS'JACK_AND_JILL_DVS192'
p870
g7
sS'GREEN_ZONE_DVS412'
p871
g9
sS'LIFE_OF_PI_DVS338'
p872
g7
sS'ZOMBIELAND_DVS639'
p873
g7
sS'LIFE_OF_PI_DVS423'
p874
g63
sS'LIFE_OF_PI_DVS426'
p875
g9
sS'JACK_AND_JILL_DVS425'
p876
g41
sS'EASY_A_DVS38'
p877
g9
sS'CHRONICLE_DVS133'
p878
g16
sS'WHATS_YOUR_NUMBER_DVS722'
p879
g9
sS'PERCY_JACKSON_LIGHTENING_THIEF_DVS135'
p880
g9
sS'PERCY_JACKSON_LIGHTENING_THIEF_DVS137'
p881
g2
sS'TITANIC_1_DVS309'
p882
g9
sS'GHOST_RIDER_SPIRIT_OF_VENGEANCE_DVS277'
p883
g19
sS'SALT_DVS282'
p884
g9
sS'IN_TIME_DVS916'
p885
g19
sS'ROBIN_HOOD_DVS22'
p886
g9
sS'IN_TIME_DVS57'
p887
g27
sS'ITS_COMPLICATED_DVS267'
p888
g19
sS'CHASING_MAVERICKS_DVS184'
p889
g9
sS'WHATS_YOUR_NUMBER_DVS435'
p890
g16
sS'NANNY_MCPHEE_RETURNS_DVS480'
p891
g9
sS'IRON_MAN_2_DVS537'
p892
g9
sS'IRON_MAN_2_DVS536'
p893
g9
sS'MORNING_GLORY_DVS490'
p894
g7
sS'FLIGHT_DVS511'
p895
g27
sS'A_THOUSAND_WORDS_DVS386'
p896
g2
sS'WHATS_YOUR_NUMBER_DVS696'
p897
g9
sS'IRON_MAN_2_DVS624'
p898
g19
sS'CHASING_MAVERICKS_DVS454'
p899
g35
sS'TITANIC_1_DVS332'
p900
g41
sS'BURLESQUE_DVS229'
p901
g27
sS'KATY_PERRY_PART_OF_ME_DVS234'
p902
g7
sS'TITANIC_1_DVS338'
p903
g9
sS'BIG_MOMMAS_LIKE_FATHER_LIKE_SON_DVS415'
p904
g19
sS'COLOMBIANA_DVS438'
p905
g9
sS'UGLY_TRUTH_DVS384'
p906
g19
sS'SUPER_8_DVS353'
p907
g9
sS'CHASING_MAVERICKS_DVS534'
p908
g16
sS'SNOW_FLOWER_FD_DVS683'
p909
g41
sS'IRON_MAN_2_DVS441'
p910
g2
sS'TITANIC_1_DVS248'
p911
g9
sS'TITANIC_1_DVS249'
p912
g9
sS'RUBY_SPARKS_DVS136'
p913
g9
sS'RUBY_SPARKS_DVS130'
p914
g35
sS'NANNY_MCPHEE_RETURNS_DVS153'
p915
g19
sS'CHRONICLE_DVS147'
p916
g27
sS'TITANIC_1_DVS247'
p917
g9
sS'ABRAHAM_LINCOLN_VAMPIRE_HUNTER_DVS423'
p918
g7
sS'GROWN_UPS_DVS68'
p919
g9
sS'WE_BOUGHT_A_ZOO_DVS679'
p920
g35
sS'COLOMBIANA_DVS886'
p921
g255
sS'THE_VOW_DVS480'
p922
g9
sS'DEATH_AT_A_FUNERAL_DVS228'
p923
g19
sS'LITTLE_FOCKERS_DVS243'
p924
g19
sS'LITTLE_FOCKERS_DVS241'
p925
g2
sS'THE_ADVENTURES_OF_TINTIN_DVS148'
p926
g9
sS'30_MINUTES_OR_LESS_DVS116'
p927
g225
sS'BATTLE_LOS_ANGELES_DVS542'
p928
g27
sS'TITANIC_1_DVS460'
p929
g35
sS'TITANIC_1_DVS461'
p930
g255
sS'THE_BIG_YEAR_DVS148'
p931
g9
sS'EASY_A_DVS193'
p932
g16
sS'THE_VOW_DVS700'
p933
g16
sS'SANCTUM_DVS22'
p934
g35
sS'21_JUMP_STREET_DVS73'
p935
g9
sS'SPARKLE_2012_DVS461'
p936
g16
sS'THE_BIG_YEAR_DVS569'
p937
g19
sS'HOW_DO_YOU_KNOW_DVS311'
p938
g16
sS'TITANIC_1_DVS183'
p939
g2
sS'SALT_DVS217'
p940
g9
sS'HUGO_DVS626'
p941
g2
sS'HUGO_DVS627'
p942
g7
sS'HUGO_DVS623'
p943
g16
sS'THOR_DVS372'
p944
g9
sS'MORNING_GLORY_DVS499'
p945
g9
sS'TOOTH_FAIRY_DVS120'
p946
g27
sS'TOOTH_FAIRY_DVS123'
p947
g2
sS'TOOTH_FAIRY_DVS122'
p948
g2
sS'THE_ADVENTURES_OF_TINTIN_DVS49'
p949
g9
sS'HUGO_DVS393'
p950
g27
sS'A_GOOD_DAY_TO_DIE_HARD_DVS529'
p951
g50
sS'MR_POPPERS_PENGUINS_DVS632'
p952
g9
sS'BATTLE_LOS_ANGELES_DVS374'
p953
g16
sS'A_GOOD_DAY_TO_DIE_HARD_DVS527'
p954
g9
sS'BURLESQUE_DVS439'
p955
g41
sS'40_YEAR_OLD_VIRGIN_DVS228'
p956
g9
sS'TITANIC_2_DVS663'
p957
g9
sS'40_YEAR_OLD_VIRGIN_DVS222'
p958
g2
sS'HUGO_DVS711'
p959
g9
sS'TITANIC_2_DVS665'
p960
g9
sS'MORNING_GLORY_DVS232'
p961
g16
sS'MORNING_GLORY_DVS234'
p962
g16
sS'THE_VOW_DVS155'
p963
g19
sS'SUPER_8_DVS27'
p964
g9
sS'THE_BIG_YEAR_DVS293'
p965
g27
sS'CINDERELLA_MAN_DVS493'
p966
g7
sS'CINDERELLA_MAN_DVS491'
p967
g19
sS'IN_TIME_DVS136'
p968
g19
sS'ZOMBIELAND_DVS408'
p969
g9
sS'TOOTH_FAIRY_DVS673'
p970
g2
sS'FRIENDS_WITH_BENEFITS_DVS159'
p971
g63
sS'THE_CALL_DVS886'
p972
g19
sS'FRIENDS_WITH_BENEFITS_DVS151'
p973
g41
sS'TITANIC_2_DVS405'
p974
g19
sS'THOR_DVS168'
p975
g9
sS'BURLESQUE_DVS97'
p976
g27
sS'TOOTH_FAIRY_DVS582'
p977
g9
sS'PUBLIC_ENEMIES_DVS86'
p978
g2
sS'HUGO_DVS405'
p979
g41
sS'JUST_GO_WITH_IT_DVS238'
p980
g7
sS'CHARLIE_ST_CLOUD_DVS125'
p981
g9
sS'A_GOOD_DAY_TO_DIE_HARD_DVS458'
p982
g16
sS'JUST_GO_WITH_IT_DVS236'
p983
g16
sS'GHOST_RIDER_SPIRIT_OF_VENGEANCE_DVS485'
p984
g255
sS'IN_TIME_DVS627'
p985
g19
sS'SORCERERS_APPRENTICE_DVS144'
p986
g16
sS'IN_TIME_DVS620'
p987
g27
sS'COLOMBIANA_DVS150'
p988
g63
sS'ZOOKEEPER_DVS229'
p989
g63
sS'THE_BOUNTY_HUNTER_DVS345'
p990
g63
sS'BAD_TEACHER_DVS162'
p991
g7
sS'HANSEL_GRETEL_WITCH_HUNTERS_DVS138'
p992
g9
sS'CAPTAIN_AMERICA_DVS312'
p993
g9
sS'CAPTAIN_AMERICA_DVS314'
p994
g9
sS'A_THOUSAND_WORDS_DVS28'
p995
g14
sS'THE_GIRL_WITH_THE_DRAGON_TATTOO_DVS1398'
p996
g19
sS'NO_STRINGS_ATTACHED_DVS344'
p997
g16
sS'ROBIN_HOOD_DVS266'
p998
g19
sS'THE_GIRL_WITH_THE_DRAGON_TATTOO_DVS1397'
p999
g19
sS'GREEN_ZONE_DVS465'
p1000
g19
sS'WHATS_YOUR_NUMBER_DVS606'
p1001
g9
sS'CAPTAIN_AMERICA_DVS535'
p1002
g9
sS'LIFE_OF_PI_DVS438'
p1003
g41
sS'ZOMBIELAND_DVS627'
p1004
g9
sS'THOR_DVS589'
p1005
g9
sS'ZOMBIELAND_DVS366'
p1006
g9
sS'JACK_AND_JILL_DVS450'
p1007
g63
sS'ZOMBIELAND_DVS335'
p1008
g19
sS'ITS_COMPLICATED_DVS311'
p1009
g16
sS'XMEN_FIRST_CLASS_DVS434'
p1010
g63
sS'CAPTAIN_AMERICA_DVS76'
p1011
g7
sS'CAPTAIN_AMERICA_DVS78'
p1012
g2
sS'WHATS_YOUR_NUMBER_DVS738'
p1013
g2
sS'IN_TIME_DVS924'
p1014
g16
sS'BRUNO_DVS83'
p1015
g27
sS'IN_TIME_DVS922'
p1016
g9
sS'SNOW_FLOWER_FD_DVS273'
p1017
g255
sS'FLIGHT_DVS213'
p1018
g19
sS'SANCTUM_DVS428'
p1019
g2
sS'LIFE_OF_PI_DVS321'
p1020
g63
sS'ZOMBIELAND_DVS750'
p1021
g19
sS'ZOMBIELAND_DVS751'
p1022
g2
sS'CHASING_MAVERICKS_DVS192'
p1023
g63
sS'LIFE_OF_PI_DVS694'
p1024
g63
sS'SORCERERS_APPRENTICE_DVS47'
p1025
g255
sS'ITS_COMPLICATED_DVS275'
p1026
g16
sS'ITS_COMPLICATED_DVS274'
p1027
g7
sS'ITS_COMPLICATED_DVS273'
p1028
g19
sS'CAPTAIN_AMERICA_DVS40'
p1029
g2
sS'WHATS_YOUR_NUMBER_DVS421'
p1030
g7
sS'THE_ADVENTURES_OF_TINTIN_DVS556'
p1031
g9
sS'JACK_AND_JILL_DVS31'
p1032
g9
sS'THIS_MEANS_WAR_DVS384'
p1033
g7
sS'KARATE_KID_DVS422'
p1034
g19
sS'SALT_DVS341'
p1035
g41
sS'ABRAHAM_LINCOLN_VAMPIRE_HUNTER_DVS353'
p1036
g9
sS'FLIGHT_DVS81'
p1037
g2
sS'KATY_PERRY_PART_OF_ME_DVS228'
p1038
g9
sS'TITANIC_1_DVS324'
p1039
g9
sS'BURLESQUE_DVS236'
p1040
g27
sS'COLOMBIANA_DVS420'
p1041
g2
sS'COLOMBIANA_DVS423'
p1042
g27
sS'COLOMBIANA_DVS426'
p1043
g27
sS'KARATE_KID_DVS1043'
p1044
g19
sS'SUPER_8_DVS343'
p1045
g19
sS'MR_POPPERS_PENGUINS_DVS30'
p1046
g16
sS'KARATE_KID_DVS1047'
p1047
g2
sS'RUBY_SPARKS_DVS216'
p1048
g9
sS'TITANIC_1_DVS259'
p1049
g9
sS'THE_CALL_DVS1096'
p1050
g9
sS'TITANIC_1_DVS251'
p1051
g9
sS'RUBY_SPARKS_DVS451'
p1052
g19
sS'KATY_PERRY_PART_OF_ME_DVS319'
p1053
g19
sS'TITANIC_1_DVS256'
p1054
g9
sS'GREEN_ZONE_DVS115'
p1055
g16
sS'TOOTH_FAIRY_DVS875'
p1056
g63
sS'TOOTH_FAIRY_DVS874'
p1057
g19
sS'JULIE_AND_JULIA_DVS240'
p1058
g7
sS'DEATH_AT_A_FUNERAL_DVS234'
p1059
g2
sS'GHOST_RIDER_SPIRIT_OF_VENGEANCE_DVS31'
p1060
g255
sS'DEATH_AT_A_FUNERAL_DVS237'
p1061
g41
sS'FLIGHT_DVS187'
p1062
g19
sS'RUBY_SPARKS_DVS672'
p1063
g9
sS'RUBY_SPARKS_DVS671'
p1064
g9
sS'GROWN_UPS_DVS142'
p1065
g41
sS'TITANIC_1_DVS475'
p1066
g35
sS'THE_BIG_YEAR_DVS171'
p1067
g9
sS'THE_BIG_YEAR_DVS174'
p1068
g9
sS'THE_BIG_YEAR_DVS176'
p1069
g7
sS'THE_VOW_DVS361'
p1070
g255
sS'DEAR_JOHN_DVS181'
p1071
g9
sS'THE_VOW_DVS366'
p1072
g50
sS'PUBLIC_ENEMIES_DVS618'
p1073
g19
sS'PUBLIC_ENEMIES_DVS619'
p1074
g19
sS'THE_DESCENDANTS_DVS90'
p1075
g19
sS'THE_DESCENDANTS_DVS91'
p1076
g9
sS'500DAYSOFSUMMER_DVS102'
p1077
g19
sS'SPARKLE_2012_DVS476'
p1078
g27
sS'21_JUMP_STREET_DVS88'
p1079
g14
sS'CHASING_MAVERICKS_DVS610'
p1080
g19
sS'COLOMBIANA_DVS632'
p1081
g19
sS'ZOMBIELAND_DVS669'
p1082
g50
sS'THE_CALL_DVS508'
p1083
g9
sS'EASY_A_DVS233'
p1084
g2
sS'PERCY_JACKSON_LIGHTENING_THIEF_DVS171'
p1085
g2
sS'IN_TIME_DVS383'
p1086
g35
sS'BATTLE_LOS_ANGELES_DVS485'
p1087
g16
sS'THE_ADVENTURES_OF_TINTIN_DVS53'
p1088
g9
sS'THE_ADVENTURES_OF_TINTIN_DVS52'
p1089
g2
sS'THINK_LIKE_A_MAN_DVS309'
p1090
g50
sS'GHOST_RIDER_SPIRIT_OF_VENGEANCE_DVS17'
p1091
g50
sS'HUGO_DVS361'
p1092
g19
sS'SPARKLE_2012_DVS293'
p1093
g19
sS'THE_BOUNTY_HUNTER_DVS110'
p1094
g7
sS'IN_TIME_DVS725'
p1095
g2
sS'DEAR_JOHN_DVS411'
p1096
g19
sS'TITANIC_2_DVS658'
p1097
g9
sS'HUGO_DVS766'
p1098
g50
sS'WHATS_YOUR_NUMBER_DVS734'
p1099
g7
sS'THE_BIG_YEAR_DVS190'
p1100
g16
sS'THE_BIG_YEAR_DVS197'
p1101
g27
sS'THE_VOW_DVS638'
p1102
g255
sS'HUGO_DVS505'
p1103
g35
sS'THE_ART_OF_GETTING_BY_DVS292'
p1104
g9
sS'ZOMBIELAND_DVS437'
p1105
g7
sS'THE_ART_OF_GETTING_BY_DVS298'
p1106
g2
sS'NANNY_MCPHEE_RETURNS_DVS53'
p1107
g9
sS'IN_TIME_DVS380'
p1108
g35
sS'PARENTAL_GUIDANCE_DVS292'
p1109
g50
sS'COLOMBIANA_DVS1080'
p1110
g19
sS'THINK_LIKE_A_MAN_DVS472'
p1111
g19
sS'THE_DESCENDANTS_DVS460'
p1112
g9
sS'MR_POPPERS_PENGUINS_DVS625'
p1113
g27
sS'MR_POPPERS_PENGUINS_DVS624'
p1114
g27
sS'JUST_GO_WITH_IT_DVS145'
p1115
g9
sS'THE_BIG_YEAR_DVS226'
p1116
g50
sS'SALT_DVS403'
p1117
g9
sS'CHASING_MAVERICKS_DVS1027'
p1118
g19
sS'CHRONICLE_DVS43'
p1119
g27
sS'FRIENDS_WITH_BENEFITS_DVS73'
p1120
g9
sS'SORCERERS_APPRENTICE_DVS310'
p1121
g9
sS'FRIENDS_WITH_BENEFITS_DVS234'
p1122
g7
sS'PUBLIC_ENEMIES_DVS208'
p1123
g9
sS'XMEN_FIRST_CLASS_DVS530'
p1124
g2
sS'IN_TIME_DVS652'
p1125
g2
sS'HUGO_DVS183'
p1126
g19
sS'HUGO_DVS180'
p1127
g2
sS'YOUNG_ADULT_DVS274'
p1128
g7
sS'BIG_MOMMAS_LIKE_FATHER_LIKE_SON_DVS212'
p1129
g9
sS'THE_GIRL_WITH_THE_DRAGON_TATTOO_DVS1259'
p1130
g16
sS'LIFE_OF_PI_DVS620'
p1131
g19
sS'TOOTH_FAIRY_DVS486'
p1132
g19
sS'30_MINUTES_OR_LESS_DVS21'
p1133
S'annotated'
p1134
sS'PARENTAL_GUIDANCE_DVS349'
p1135
g16
sS'SANCTUM_DVS30'
p1136
g16
sS'CAPTAIN_AMERICA_DVS324'
p1137
g9
sS'ITS_COMPLICATED_DVS413'
p1138
g16
sS'LARRY_CROWNE_DVS39'
p1139
g27
sS'DISTRICT_9_DVS401'
p1140
g27
sS'THE_SITTER_DVS19'
p1141
g27
sS'YOUNG_ADULT_DVS388'
p1142
g19
sS'IDES_OF_MARCH_DVS256'
p1143
g19
sS'LIFE_OF_PI_DVS597'
p1144
g35
sS'ZOMBIELAND_DVS291'
p1145
g7
sS'PROMETHEUS_DVS1024'
p1146
g50
sS'THOR_DVS594'
p1147
g19
sS'BURLESQUE_DVS333'
p1148
g2
sS'SNOW_FLOWER_FD_DVS603'
p1149
g9
sS'SORCERERS_APPRENTICE_DVS87'
p1150
g16
sS'21_JUMP_STREET_DVS61'
p1151
g225
sS'WHATS_YOUR_NUMBER_DVS258'
p1152
g19
sS'LIFE_OF_PI_DVS774'
p1153
g19
sS'SNOW_FLOWER_FD_DVS204'
p1154
g9
sS'IN_TIME_DVS935'
p1155
g19
sS'IN_TIME_DVS934'
p1156
g16
sS'WHATS_YOUR_NUMBER_DVS702'
p1157
g9
sS'XMEN_FIRST_CLASS_DVS944'
p1158
g19
sS'KATY_PERRY_PART_OF_ME_DVS32'
p1159
g7
sS'WHATS_YOUR_NUMBER_DVS707'
p1160
g9
sS'LIFE_OF_PI_DVS778'
p1161
g27
sS'CAPTAIN_AMERICA_DVS506'
p1162
g19
sS'COLOMBIANA_DVS182'
p1163
g63
sS'IN_TIME_DVS75'
p1164
g2
sS'21_JUMP_STREET_DVS225'
p1165
g9
sS'WE_BOUGHT_A_ZOO_DVS275'
p1166
g16
sS'LIFE_OF_PI_DVS178'
p1167
g9
sS'LAND_OF_THE_LOST_DVS69'
p1168
g19
sS'THE_WATCH_DVS388'
p1169
g9
sS'KARATE_KID_DVS899'
p1170
g2
sS'THE_WATCH_DVS380'
p1171
g2
sS'UGLY_TRUTH_DVS257'
p1172
g9
sS'BIG_MOMMAS_LIKE_FATHER_LIKE_SON_DVS470'
p1173
g27
sS'FLIGHT_DVS530'
p1174
g41
sS'21_JUMP_STREET_DVS135'
p1175
g9
sS'TITANIC_1_DVS318'
p1176
g2
sS'BURLESQUE_DVS202'
p1177
g2
sS'TITANIC_1_DVS310'
p1178
g9
sS'TITANIC_1_DVS317'
p1179
g63
sS'ITS_COMPLICATED_DVS136'
p1180
g19
sS'SUPER_8_DVS579'
p1181
g9
sS'IRON_MAN_2_DVS514'
p1182
g9
sS'WE_BOUGHT_A_ZOO_DVS507'
p1183
g19
sS'RUBY_SPARKS_DVS115'
p1184
g9
sS'JULIE_AND_JULIA_DVS60'
p1185
g19
sS'TITANIC_1_DVS263'
p1186
g9
sS'RUBY_SPARKS_DVS447'
p1187
g7
sS'A_THOUSAND_WORDS_DVS299'
p1188
g9
sS'PROMETHEUS_DVS901'
p1189
g9
sS'30_MINUTES_OR_LESS_DVS138'
p1190
g225
sS'CHASING_MAVERICKS_DVS602'
p1191
g63
sS'TITANIC_1_DVS446'
p1192
g9
sS'KARATE_KID_DVS1580'
p1193
g63
sS'THE_CALL_DVS1108'
p1194
g27
sS'THE_ADVENTURES_OF_TINTIN_DVS164'
p1195
g50
sS'PUBLIC_ENEMIES_DVS338'
p1196
g19
sS'SUPER_8_DVS487'
p1197
g9
sS'SUPER_8_DVS485'
p1198
g2
sS'SUPER_8_DVS488'
p1199
g50
sS'COLOMBIANA_DVS628'
p1200
g2
sS'GHOST_RIDER_SPIRIT_OF_VENGEANCE_DVS20'
p1201
g27
sS'GHOST_RIDER_SPIRIT_OF_VENGEANCE_DVS22'
p1202
g9
sS'21_JUMP_STREET_DVS96'
p1203
g27
sS'COLOMBIANA_DVS627'
p1204
g35
sS'COLOMBIANA_DVS625'
p1205
g35
sS'KARATE_KID_DVS1472'
p1206
g27
sS'THINK_LIKE_A_MAN_DVS486'
p1207
g7
sS'THOR_DVS364'
p1208
g9
sS'INSIDE_MAN_DVS54'
p1209
g27
sS'INSIDE_MAN_DVS55'
p1210
g2
sS'CINDERELLA_MAN_DVS382'
p1211
g7
sS'SUPER_8_DVS620'
p1212
g41
sS'SUPER_8_DVS153'
p1213
g9
sS'BATTLE_LOS_ANGELES_DVS31'
p1214
g16
sS'SUPER_8_DVS83'
p1215
g19
sS'THE_GIRL_WITH_THE_DRAGON_TATTOO_DVS601'
p1216
g16
sS'SUPER_8_DVS393'
p1217
g19
sS'HUGO_DVS64'
p1218
g9
sS'INSIDE_MAN_DVS429'
p1219
g27
sS'KARATE_KID_DVS597'
p1220
g63
sS'IN_TIME_DVS738'
p1221
g9
sS'HUGO_DVS375'
p1222
g19
sS'IN_TIME_DVS731'
p1223
g9
sS'IN_TIME_DVS730'
p1224
g63
sS'TITANIC_1_DVS89'
p1225
g9
sS'THE_ADVENTURES_OF_TINTIN_DVS88'
p1226
g9
sS'THIS_MEANS_WAR_DVS98'
p1227
g19
sS'SOUL_SURFER_DVS51'
p1228
g9
sS'COLOMBIANA_DVS848'
p1229
g7
sS'HUGO_DVS777'
p1230
g19
sS'GET_HIM_TO_THE_GREEK_DVS140'
p1231
g16
sS'HUGO_DVS69'
p1232
g9
sS'JULIE_AND_JULIA_DVS500'
p1233
g41
sS'THINK_LIKE_A_MAN_DVS326'
p1234
g9
sS'ZOMBIELAND_DVS425'
p1235
g50
sS'HANSEL_GRETEL_WITCH_HUNTERS_DVS59'
p1236
g9
sS'IN_TIME_DVS394'
p1237
g19
sS'HANSEL_GRETEL_WITCH_HUNTERS_DVS244'
p1238
g9
sS'THE_ART_OF_GETTING_BY_DVS197'
p1239
g19
sS'A_GOOD_DAY_TO_DIE_HARD_DVS290'
p1240
g7
sS'MR_POPPERS_PENGUINS_DVS653'
p1241
g9
sS'THE_BIG_YEAR_DVS238'
p1242
g9
sS'TITANIC_2_DVS421'
p1243
g19
sS'THE_CALL_DVS797'
p1244
g9
sS'FRIENDS_WITH_BENEFITS_DVS225'
p1245
g41
sS'THE_DESCENDANTS_DVS491'
p1246
g19
sS'HUGO_DVS199'
p1247
g19
sS'NO_STRINGS_ATTACHED_DVS214'
p1248
g9
sS'NO_STRINGS_ATTACHED_DVS216'
p1249
g9
sS'21_JUMP_STREET_DVS418'
p1250
g50
sS'HUGO_DVS193'
p1251
g9
sS'SORCERERS_APPRENTICE_DVS128'
p1252
g63
sS'BAD_TEACHER_DVS188'
p1253
g27
sS'HANSEL_GRETEL_WITCH_HUNTERS_DVS117'
p1254
g9
sS'30_MINUTES_OR_LESS_DVS55'
p1255
g16
sS'CAPTAIN_AMERICA_DVS338'
p1256
g9
sS'PERCY_JACKSON_LIGHTENING_THIEF_DVS379'
p1257
g27
sS'XMEN_FIRST_CLASS_DVS413'
p1258
g9
sS'ROBIN_HOOD_DVS244'
p1259
g19
sS'GREEN_ZONE_DVS440'
p1260
g27
sS'LIFE_OF_PI_DVS588'
p1261
g2
sS'ZOMBIELAND_DVS191'
p1262
g2
sS'GHOST_RIDER_SPIRIT_OF_VENGEANCE_DVS447'
p1263
g255
sS'GHOST_RIDER_SPIRIT_OF_VENGEANCE_DVS443'
p1264
g50
sS'THE_BOUNTY_HUNTER_DVS256'
p1265
g19
sS'GHOST_RIDER_SPIRIT_OF_VENGEANCE_DVS113'
p1266
g9
sS'CAPTAIN_AMERICA_DVS427'
p1267
g9
sS'ITS_COMPLICATED_DVS331'
p1268
g41
sS'A_GOOD_DAY_TO_DIE_HARD_DVS879'
p1269
g9
sS'ROBIN_HOOD_DVS338'
p1270
g19
sS'CAPTAIN_AMERICA_DVS50'
p1271
g2
sS'ABRAHAM_LINCOLN_VAMPIRE_HUNTER_DVS597'
p1272
g63
sS'ABRAHAM_LINCOLN_VAMPIRE_HUNTER_DVS596'
p1273
g63
sS'TRUE_GRIT_DVS473'
p1274
g27
sS'YOUNG_ADULT_DVS137'
p1275
g19
sS'GHOST_RIDER_SPIRIT_OF_VENGEANCE_DVS284'
p1276
g19
sS'SNOW_FLOWER_FD_DVS218'
p1277
g2
sS'CAPTAIN_AMERICA_DVS604'
p1278
g9
sS'WHATS_YOUR_NUMBER_DVS710'
p1279
g7
sS'GHOST_RIDER_SPIRIT_OF_VENGEANCE_DVS282'
p1280
g19
sS'CAPTAIN_AMERICA_DVS516'
p1281
g2
sS'CAPTAIN_AMERICA_DVS514'
p1282
g2
sS'PARENTAL_GUIDANCE_DVS383'
p1283
g19
sS'WHATS_YOUR_NUMBER_DVS627'
p1284
g50
sS'KARATE_KID_DVS718'
p1285
g19
sS'HANSEL_GRETEL_WITCH_HUNTERS_DVS201'
p1286
g2
sS'GHOST_RIDER_SPIRIT_OF_VENGEANCE_DVS179'
p1287
g2
sS'LIFE_OF_PI_DVS853'
p1288
g9
sS'A_THOUSAND_WORDS_DVS194'
p1289
g19
sS'LIFE_OF_PI_DVS166'
p1290
g9
sS'LIFE_OF_PI_DVS164'
p1291
g255
sS'SNOW_FLOWER_FD_DVS502'
p1292
g2
sS'THE_ADVENTURES_OF_TINTIN_DVS572'
p1293
g9
sS'IRON_MAN_2_DVS291'
p1294
g27
sS'KARATE_KID_DVS882'
p1295
g2
sS'COLOMBIANA_DVS82'
p1296
g255
sS'KARATE_KID_DVS1110'
p1297
g9
sS'THE_ART_OF_GETTING_BY_DVS255'
p1298
g19
sS'THE_WATCH_DVS395'
p1299
g27
sS'FLIGHT_DVS527'
p1300
g41
sS'IRON_MAN_2_DVS298'
p1301
g50
sS'COLOMBIANA_DVS88'
p1302
g41
sS'ABRAHAM_LINCOLN_VAMPIRE_HUNTER_DVS575'
p1303
g2
sS'SALT_DVS363'
p1304
g16
sS'KATY_PERRY_PART_OF_ME_DVS158'
p1305
g41
sS'BURLESQUE_DVS218'
p1306
g9
sS'KARATE_KID_DVS404'
p1307
g7
sS'THE_SOCIAL_NETWORK_DVS84'
p1308
g16
sS'BURLESQUE_DVS211'
p1309
g41
sS'TITANIC_1_DVS304'
p1310
g35
sS'CHASING_MAVERICKS_DVS261'
p1311
g7
sS'TITANIC_1_DVS301'
p1312
g35
sS'THE_SITTER_DVS144'
p1313
g27
sS'BLINDDATING_DVS239'
p1314
g27
sS'THE_SITTER_DVS141'
p1315
g50
sS'IRON_MAN_2_DVS180'
p1316
g9
sS'SUPER_8_DVS369'
p1317
g9
sS'XMEN_FIRST_CLASS_DVS1171'
p1318
g9
sS'THE_SOCIAL_NETWORK_DVS68'
p1319
g19
sS'LARRY_CROWNE_DVS188'
p1320
g19
sS'SUPER_8_DVS561'
p1321
g9
sS'THIS_MEANS_WAR_DVS528'
p1322
g50
sS'SUPER_8_DVS569'
p1323
g41
sS'ROBIN_HOOD_DVS320'
p1324
g19
sS'TITANIC_1_DVS271'
p1325
g7
sS'TITANIC_1_DVS270'
p1326
g9
sS'TITANIC_1_DVS275'
p1327
g9
sS'TITANIC_1_DVS274'
p1328
g9
sS'TITANIC_1_DVS277'
p1329
g9
sS'TITANIC_1_DVS276'
p1330
g9
sS'BATTLE_LOS_ANGELES_DVS613'
p1331
g7
sS'FLIGHT_DVS29'
p1332
g9
sS'KARATE_KID_DVS1241'
p1333
g19
sS'THE_CALL_DVS1111'
p1334
g9
sS'GROWN_UPS_DVS166'
p1335
g9
sS'THE_ADVENTURES_OF_TINTIN_DVS199'
p1336
g9
sS'RUBY_SPARKS_DVS305'
p1337
g9
sS'THE_WATCH_DVS133'
p1338
g27
sS'PROMETHEUS_DVS809'
p1339
g9
sS'SUPER_8_DVS494'
p1340
g9
sS'PROMETHEUS_DVS804'
p1341
g63
sS'PUBLIC_ENEMIES_DVS320'
p1342
g19
sS'PUBLIC_ENEMIES_DVS480'
p1343
g9
sS'THE_ADVENTURES_OF_TINTIN_DVS685'
p1344
g9
sS'SNOW_FLOWER_FD_DVS724'
p1345
g41
sS'SNOW_FLOWER_FD_DVS722'
p1346
g7
sS'COLOMBIANA_DVS610'
p1347
g35
sS'MORNING_GLORY_DVS398'
p1348
g16
sS'INSIDE_MAN_DVS46'
p1349
g7
sS'CHRONICLE_DVS531'
p1350
g50
sS'500DAYSOFSUMMER_DVS395'
p1351
g9
sS'THE_GIRL_WITH_THE_DRAGON_TATTOO_DVS93'
p1352
g9
sS'A_THOUSAND_WORDS_DVS138'
p1353
g2
sS'DEAR_JOHN_DVS307'
p1354
g9
sS'SUPER_8_DVS381'
p1355
g9
sS'PUBLIC_ENEMIES_DVS259'
p1356
g9
sS'JULIE_AND_JULIA_DVS462'
p1357
g16
sS'HUGO_DVS697'
p1358
g2
sS'THE_BOUNTY_HUNTER_DVS131'
p1359
g9
sS'HUGO_DVS691'
p1360
g9
sS'HUGO_DVS342'
p1361
g2
sS'A_GOOD_DAY_TO_DIE_HARD_DVS512'
p1362
g2
sS'A_GOOD_DAY_TO_DIE_HARD_DVS516'
p1363
g9
sS'THE_DESCENDANTS_DVS643'
p1364
g2
sS'THE_ADVENTURES_OF_TINTIN_DVS98'
p1365
g2
sS'DEAR_JOHN_DVS546'
p1366
g19
sS'SALT_DVS550'
p1367
g19
sS'BATTLE_LOS_ANGELES_DVS596'
p1368
g19
sS'SALT_DVS556'
p1369
g19
sS'GROWN_UPS_DVS182'
p1370
g9
sS'500DAYSOFSUMMER_DVS85'
p1371
g14
sS'500DAYSOFSUMMER_DVS84'
p1372
g16
sS'WE_BOUGHT_A_ZOO_DVS37'
p1373
g41
sS'TOOTH_FAIRY_DVS623'
p1374
g2
sS'WE_BOUGHT_A_ZOO_DVS31'
p1375
g19
sS'TITANIC_2_DVS749'
p1376
g9
sS'HANSEL_GRETEL_WITCH_HUNTERS_DVS349'
p1377
g2
sS'THE_ART_OF_GETTING_BY_DVS185'
p1378
g19
sS'TITANIC_2_DVS743'
p1379
g19
sS'MORNING_GLORY_DVS378'
p1380
g9
sS'TITANIC_2_DVS745'
p1381
g2
sS'MR_POPPERS_PENGUINS_DVS642'
p1382
g50
sS'CHRONICLE_DVS66'
p1383
g7
sS'CHASING_MAVERICKS_DVS1005'
p1384
g2
sS'CHRONICLE_DVS65'
p1385
g7
sS'COLOMBIANA_DVS995'
p1386
g50
sS'HUGO_DVS236'
p1387
g2
sS'ZOOKEEPER_DVS386'
p1388
g9
sS'21_JUMP_STREET_DVS427'
p1389
g9
sS'YOUNG_ADULT_DVS255'
p1390
g16
sS'A_GOOD_DAY_TO_DIE_HARD_DVS467'
p1391
g2
sS'THOR_DVS602'
p1392
g19
sS'MR_POPPERS_PENGUINS_DVS519'
p1393
g2
sS'40_YEAR_OLD_VIRGIN_DVS57'
p1394
g14
sS'ROBIN_HOOD_DVS507'
p1395
g27
sS'NO_STRINGS_ATTACHED_DVS379'
p1396
g19
sS'21_JUMP_STREET_DVS681'
p1397
g41
sS'LIFE_OF_PI_DVS574'
p1398
g27
sS'JACK_AND_JILL_DVS395'
p1399
g19
sS'GHOST_RIDER_SPIRIT_OF_VENGEANCE_DVS438'
p1400
g9
sS'GHOST_RIDER_SPIRIT_OF_VENGEANCE_DVS439'
p1401
g63
sS'SORCERERS_APPRENTICE_DVS111'
p1402
g19
sS'FLIGHT_DVS145'
p1403
g9
sS'LIFE_OF_PI_DVS975'
p1404
g7
sS'A_GOOD_DAY_TO_DIE_HARD_DVS866'
p1405
g9
sS'ZOMBIELAND_DVS368'
p1406
g9
sS'THOR_DVS237'
p1407
g2
sS'ITS_COMPLICATED_DVS329'
p1408
g16
sS'IRON_MAN_2_DVS570'
p1409
g9
sS'DISTRICT_9_DVS267'
p1410
g255
sS'THE_ROOMMATE_DVS375'
p1411
g2
sS'CAPTAIN_AMERICA_DVS46'
p1412
g19
sS'ABRAHAM_LINCOLN_VAMPIRE_HUNTER_DVS584'
p1413
g63
sS'LIFE_OF_PI_DVS482'
p1414
g35
sS'ABRAHAM_LINCOLN_VAMPIRE_HUNTER_DVS218'
p1415
g16
sS'PARENTAL_GUIDANCE_DVS72'
p1416
g9
sS'LIFE_OF_PI_DVS220'
p1417
g27
sS'THE_BIG_YEAR_DVS35'
p1418
g50
sS'30_MINUTES_OR_LESS_DVS210'
p1419
g9
sS'WHATS_YOUR_NUMBER_DVS654'
p1420
g19
sS'JUST_GO_WITH_IT_DVS280'
p1421
g2
sS'JUST_GO_WITH_IT_DVS287'
p1422
g41
sS'LIFE_OF_PI_DVS374'
p1423
g7
sS'THOR_DVS428'
p1424
g16
sS'THOR_DVS425'
p1425
g16
sS'ITS_COMPLICATED_DVS374'
p1426
g41
sS'CHASING_MAVERICKS_DVS492'
p1427
g255
sS'KARATE_KID_DVS186'
p1428
g16
sS'CHASING_MAVERICKS_DVS494'
p1429
g19
sS'LIFE_OF_PI_DVS396'
p1430
g63
sS'A_THOUSAND_WORDS_DVS188'
p1431
g14
sS'IDES_OF_MARCH_DVS164'
p1432
g19
sS'CHARLIE_ST_CLOUD_DVS278'
p1433
g9
sS'LIFE_OF_PI_DVS153'
p1434
g19
sS'KARATE_KID_DVS878'
p1435
g2
sS'BIG_MOMMAS_LIKE_FATHER_LIKE_SON_DVS215'
p1436
g9
sS'BIG_MOMMAS_LIKE_FATHER_LIKE_SON_DVS219'
p1437
g2
sS'THE_ROOMMATE_DVS295'
p1438
g9
sS'KARATE_KID_DVS1101'
p1439
g9
sS'KATY_PERRY_PART_OF_ME_DVS160'
p1440
g41
sS'ABRAHAM_LINCOLN_VAMPIRE_HUNTER_DVS565'
p1441
g225
sS'FLIGHT_DVS398'
p1442
g2
sS'KATY_PERRY_PART_OF_ME_DVS168'
p1443
g41
sS'XMEN_FIRST_CLASS_DVS604'
p1444
g9
sS'NO_STRINGS_ATTACHED_DVS553'
p1445
g9
sS'KARATE_KID_DVS474'
p1446
g19
sS'TITANIC_1_DVS92'
p1447
g2
sS'KARATE_KID_DVS472'
p1448
g63
sS'WE_BOUGHT_A_ZOO_DVS454'
p1449
g19
sS'ITS_COMPLICATED_DVS134'
p1450
g19
sS'BURLESQUE_DVS260'
p1451
g9
sS'BURLESQUE_DVS127'
p1452
g2
sS'TITANIC_1_DVS197'
p1453
g9
sS'TITANIC_1_DVS193'
p1454
g50
sS'XMEN_FIRST_CLASS_DVS849'
p1455
g7
sS'A_THOUSAND_WORDS_DVS362'
p1456
g9
sS'TITANIC_1_DVS199'
p1457
g9
sS'COLOMBIANA_DVS513'
p1458
g2
sS'THE_ADVENTURES_OF_TINTIN_DVS368'
p1459
g50
sS'UGLY_TRUTH_DVS477'
p1460
g50
sS'SUPER_8_DVS555'
p1461
g19
sS'SUPER_8_DVS556'
p1462
g9
sS'THIS_MEANS_WAR_DVS511'
p1463
g9
sS'SOUL_SURFER_DVS181'
p1464
g9
sS'KARATE_KID_DVS509'
p1465
g2
sS'XMEN_FIRST_CLASS_DVS920'
p1466
g19
sS'BIG_MOMMAS_LIKE_FATHER_LIKE_SON_DVS528'
p1467
g9
sS'BATTLE_LOS_ANGELES_DVS609'
p1468
g9
sS'GREEN_ZONE_DVS125'
p1469
g9
sS'HOW_DO_YOU_KNOW_DVS680'
p1470
g19
sS'30_MINUTES_OR_LESS_DVS157'
p1471
g9
sS'JULIE_AND_JULIA_DVS219'
p1472
g9
sS'30_MINUTES_OR_LESS_DVS152'
p1473
g7
sS'WE_BOUGHT_A_ZOO_DVS806'
p1474
g19
sS'EASY_A_DVS154'
p1475
g16
sS'IRON_MAN_2_DVS318'
p1476
g9
sS'THE_ADVENTURES_OF_TINTIN_DVS188'
p1477
g2
sS'WE_BOUGHT_A_ZOO_DVS147'
p1478
g7
sS'DEAR_JOHN_DVS159'
p1479
g7
sS'PARENTAL_GUIDANCE_DVS426'
p1480
g19
sS'500DAYSOFSUMMER_DVS396'
p1481
g14
sS'500DAYSOFSUMMER_DVS397'
p1482
g14
sS'WE_BOUGHT_A_ZOO_DVS148'
p1483
g7
sS'NANNY_MCPHEE_RETURNS_DVS205'
p1484
g35
sS'BIG_MOMMAS_LIKE_FATHER_LIKE_SON_DVS149'
p1485
g7
sS'MORNING_GLORY_DVS388'
p1486
g27
sS'HOW_DO_YOU_KNOW_DVS358'
p1487
g50
sS'JULIE_AND_JULIA_DVS450'
p1488
g19
sS'HOW_DO_YOU_KNOW_DVS353'
p1489
g19
sS'THE_GIRL_WITH_THE_DRAGON_TATTOO_DVS139'
p1490
g7
sS'THE_BIG_YEAR_DVS525'
p1491
g9
sS'SPARKLE_2012_DVS480'
p1492
g63
sS'SUPER_8_DVS601'
p1493
g9
sS'PUBLIC_ENEMIES_DVS261'
p1494
g9
sS'THE_GIRL_WITH_THE_DRAGON_TATTOO_DVS84'
p1495
g9
sS'THE_VOW_DVS283'
p1496
g27
sS'THE_GUILT_TRIP_DVS109'
p1497
g19
sS'DEAR_JOHN_DVS338'
p1498
g41
sS'THE_BOUNTY_HUNTER_DVS126'
p1499
g9
sS'SUPER_8_DVS401'
p1500
g9
sS'THE_VOW_DVS268'
p1501
g19
sS'THE_BIG_YEAR_DVS412'
p1502
g27
sS'IN_TIME_DVS249'
p1503
g2
sS'SNOW_FLOWER_FD_DVS1410'
p1504
g9
sS'DEAR_JOHN_DVS448'
p1505
g19
sS'INSIDE_MAN_DVS175'
p1506
g255
sS'BIG_MOMMAS_LIKE_FATHER_LIKE_SON_DVS46'
p1507
g27
sS'THE_DESCENDANTS_DVS383'
p1508
g9
sS'BURLESQUE_DVS677'
p1509
g19
sS'THE_GIRL_WITH_THE_DRAGON_TATTOO_DVS714'
p1510
g27
sS'SALT_DVS546'
p1511
g19
sS'500DAYSOFSUMMER_DVS98'
p1512
g14
sS'500DAYSOFSUMMER_DVS93'
p1513
g19
sS'THE_DESCENDANTS_DVS257'
p1514
g27
sS'MR_POPPERS_PENGUINS_DVS186'
p1515
g9
sS'MR_POPPERS_PENGUINS_DVS187'
p1516
g27
sS'A_GOOD_DAY_TO_DIE_HARD_DVS678'
p1517
g14
sS'MR_POPPERS_PENGUINS_DVS211'
p1518
g9
sS'CHRONICLE_DVS410'
p1519
g9
sS'UGLY_TRUTH_DVS557'
p1520
g7
sS'LIFE_OF_PI_DVS978'
p1521
g9
sS'TOOTH_FAIRY_DVS706'
p1522
g27
sS'SALT_DVS430'
p1523
g50
sS'FRIENDS_WITH_BENEFITS_DVS43'
p1524
g41
sS'SALT_DVS434'
p1525
g9
sS'JUST_GO_WITH_IT_DVS113'
p1526
g9
sS'UGLY_TRUTH_DVS553'
p1527
g41
sS'BURLESQUE_DVS77'
p1528
g27
sS'MORNING_GLORY_DVS467'
p1529
g9
sS'ZOMBIELAND_DVS572'
p1530
g9
sS'HUGO_DVS224'
p1531
g7
sS'HUGO_DVS229'
p1532
g255
sS'TITANIC_2_DVS176'
p1533
g35
sS'HANSEL_GRETEL_WITCH_HUNTERS_DVS596'
p1534
g9
sS'FRIENDS_WITH_BENEFITS_DVS200'
p1535
g9
sS'THE_CALL_DVS203'
p1536
g16
sS'21_JUMP_STREET_DVS437'
p1537
g50
sS'THE_BOUNTY_HUNTER_DVS302'
p1538
g19
sS'MR_POPPERS_PENGUINS_DVS529'
p1539
g2
sS'SANCTUM_DVS113'
p1540
g2
sS'LIFE_OF_PI_DVS569'
p1541
g2
sS'MORNING_GLORY_DVS207'
p1542
g9
sS'ROBIN_HOOD_DVS511'
p1543
g9
sS'CAPTAIN_AMERICA_DVS282'
p1544
g9
sS'THE_CALL_DVS110'
p1545
g255
sS'THE_GIRL_WITH_THE_DRAGON_TATTOO_DVS1190'
p1546
g9
sS'GHOST_RIDER_SPIRIT_OF_VENGEANCE_DVS427'
p1547
g9
sS'CAPTAIN_AMERICA_DVS440'
p1548
g9
sS'CAPTAIN_AMERICA_DVS443'
p1549
g19
sS'CAPTAIN_AMERICA_DVS444'
p1550
g9
sS'CAPTAIN_AMERICA_DVS446'
p1551
g9
sS'ZOMBIELAND_DVS371'
p1552
g7
sS'DISTRICT_9_DVS272'
p1553
g9
sS'WE_BOUGHT_A_ZOO_DVS816'
p1554
g9
sS'ITS_COMPLICATED_DVS232'
p1555
g27
sS'ROBIN_HOOD_DVS56'
p1556
g255
sS'21_JUMP_STREET_DVS218'
p1557
g2
sS'CAPTAIN_AMERICA_DVS35'
p1558
g2
sS'CAPTAIN_AMERICA_DVS37'
p1559
g2
sS'CAPTAIN_AMERICA_DVS668'
p1560
g9
sS'YOUNG_ADULT_DVS119'
p1561
g16
sS'SANCTUM_DVS265'
p1562
g35
sS'YOUNG_ADULT_DVS111'
p1563
g19
sS'TITANIC_1_DVS261'
p1564
g50
sS'YOUNG_ADULT_DVS117'
p1565
g7
sS'SNOW_FLOWER_FD_DVS235'
p1566
g2
sS'LIFE_OF_PI_DVS700'
p1567
g35
sS'LIFE_OF_PI_DVS364'
p1568
g35
sS'LIFE_OF_PI_DVS811'
p1569
g19
sS'LIFE_OF_PI_DVS360'
p1570
g35
sS'ZOMBIELAND_DVS713'
p1571
g2
sS'TRUE_GRIT_DVS308'
p1572
g50
sS'KARATE_KID_DVS1076'
p1573
g9
sS'WHATS_YOUR_NUMBER_DVS463'
p1574
g35
sS'WHATS_YOUR_NUMBER_DVS462'
p1575
g63
sS'TRUE_GRIT_DVS521'
p1576
g16
sS'GHOST_RIDER_SPIRIT_OF_VENGEANCE_DVS549'
p1577
g9
sS'COLOMBIANA_DVS468'
p1578
g19
sS'LIFE_OF_PI_DVS144'
p1579
g255
sS'KARATE_KID_DVS866'
p1580
g27
sS'JACK_AND_JILL_DVS102'
p1581
g35
sS'A_THOUSAND_WORDS_DVS183'
p1582
g9
sS'THE_BIG_YEAR_DVS69'
p1583
g9
sS'FLIGHT_DVS386'
p1584
g255
sS'KATY_PERRY_PART_OF_ME_DVS179'
p1585
g9
sS'WE_BOUGHT_A_ZOO_DVS335'
p1586
g9
sS'BURLESQUE_DVS276'
p1587
g2
sS'TITANIC_1_DVS187'
p1588
g7
sS'TOOTH_FAIRY_DVS833'
p1589
g41
sS'KARATE_KID_DVS1002'
p1590
g27
sS'THE_ADVENTURES_OF_TINTIN_DVS420'
p1591
g7
sS'KARATE_KID_DVS1009'
p1592
g27
sS'NANNY_MCPHEE_RETURNS_DVS477'
p1593
g9
sS'NANNY_MCPHEE_RETURNS_DVS473'
p1594
g9
sS'21_JUMP_STREET_DVS473'
p1595
g63
sS'WE_BOUGHT_A_ZOO_DVS532'
p1596
g19
sS'THIS_MEANS_WAR_DVS183'
p1597
g19
sS'CHASING_MAVERICKS_DVS652'
p1598
g35
sS'A_THOUSAND_WORDS_DVS225'
p1599
g16
sS'COLOMBIANA_DVS670'
p1600
g35
sS'BLINDDATING_DVS103'
p1601
g2
sS'HOW_DO_YOU_KNOW_DVS124'
p1602
g27
sS'UGLY_TRUTH_DVS510'
p1603
g7
sS'30_MINUTES_OR_LESS_DVS161'
p1604
g9
sS'RUBY_SPARKS_DVS327'
p1605
g2
sS'WE_BOUGHT_A_ZOO_DVS157'
p1606
g7
sS'THIS_MEANS_WAR_DVS503'
p1607
g41
sS'500DAYSOFSUMMER_DVS380'
p1608
g41
sS'WE_BOUGHT_A_ZOO_DVS158'
p1609
g19
sS'TITANIC_1_DVS504'
p1610
g2
sS'BIG_MOMMAS_LIKE_FATHER_LIKE_SON_DVS154'
p1611
g19
sS'DEAR_JOHN_DVS143'
p1612
g41
sS'PUBLIC_ENEMIES_DVS308'
p1613
g7
sS'JULIE_AND_JULIA_DVS334'
p1614
g19
sS'THE_ADVENTURES_OF_TINTIN_DVS645'
p1615
g2
sS'TRUE_GRIT_DVS421'
p1616
g27
sS'SUPER_8_DVS615'
p1617
g19
sS'MR_POPPERS_PENGUINS_DVS174'
p1618
g9
sS'SPARKLE_2012_DVS496'
p1619
g2
sS'SUPER_8_DVS619'
p1620
g41
sS'SUPER_8_DVS618'
p1621
g41
sS'THE_VOW_DVS294'
p1622
g19
sS'COLOMBIANA_DVS708'
p1623
g9
sS'GROWN_UPS_DVS174'
p1624
g9
sS'FLIGHT_DVS613'
p1625
g50
sS'MORNING_GLORY_DVS175'
p1626
g7
sS'TITANIC_1_DVS169'
p1627
g9
sS'THE_GIRL_WITH_THE_DRAGON_TATTOO_DVS652'
p1628
g19
sS'BIG_MOMMAS_LIKE_FATHER_LIKE_SON_DVS78'
p1629
g19
sS'THE_GIRL_WITH_THE_DRAGON_TATTOO_DVS870'
p1630
g19
sS'DEAR_JOHN_DVS456'
p1631
g9
sS'DEAR_JOHN_DVS213'
p1632
g41
sS'KARATE_KID_DVS1530'
p1633
g9
sS'CAPTAIN_AMERICA_DVS635'
p1634
g2
sS'HUGO_DVS223'
p1635
g19
sS'CINDERELLA_MAN_DVS193'
p1636
g16
sS'PARENTAL_GUIDANCE_DVS402'
p1637
g19
sS'DINNER_FOR_SCHMUCKS_DVS205'
p1638
g9
sS'MR_POPPERS_PENGUINS_DVS195'
p1639
g16
sS'MR_POPPERS_PENGUINS_DVS192'
p1640
g9
sS'THE_BIG_YEAR_DVS269'
p1641
g9
sS'HUGO_DVS780'
p1642
g41
sS'GHOST_RIDER_SPIRIT_OF_VENGEANCE_DVS602'
p1643
g19
sS'MR_POPPERS_PENGUINS_DVS201'
p1644
g27
sS'THE_DESCENDANTS_DVS533'
p1645
g19
sS'THINK_LIKE_A_MAN_DVS439'
p1646
g19
sS'THINK_LIKE_A_MAN_DVS432'
p1647
g19
sS'TITANIC_2_DVS764'
p1648
g9
sS'INSIDE_MAN_DVS387'
p1649
g2
sS'JUST_GO_WITH_IT_DVS108'
p1650
g9
sS'JUST_GO_WITH_IT_DVS104'
p1651
g9
sS'THE_ART_OF_GETTING_BY_DVS414'
p1652
g19
sS'30_MINUTES_OR_LESS_DVS69'
p1653
g35
sS'LARRY_CROWNE_DVS78'
p1654
g7
sS'HUGO_DVS680'
p1655
g2
sS'DISTRICT_9_DVS447'
p1656
g19
sS'SALT_DVS18'
p1657
g16
sS'HUGO_DVS258'
p1658
g9
sS'FRIENDS_WITH_BENEFITS_DVS278'
p1659
g2
sS'TITANIC_2_DVS144'
p1660
g7
sS'TOOTH_FAIRY_DVS517'
p1661
g9
sS'TITANIC_2_DVS142'
p1662
g7
sS'FRIENDS_WITH_BENEFITS_DVS276'
p1663
g35
sS'ITS_COMPLICATED_DVS36'
p1664
g19
sS'ZOOKEEPER_DVS76'
p1665
g63
sS'IN_TIME_DVS188'
p1666
g9
sS'PARENTAL_GUIDANCE_DVS302'
p1667
g50
sS'ZOOKEEPER_DVS296'
p1668
g27
sS'CAPTAIN_AMERICA_DVS380'
p1669
g9
sS'LIFE_OF_PI_DVS550'
p1670
g2
sS'SORCERERS_APPRENTICE_DVS460'
p1671
g2
sS'TOOTH_FAIRY_DVS94'
p1672
g19
sS'30_MINUTES_OR_LESS_DVS266'
p1673
g16
sS'THE_GIRL_WITH_THE_DRAGON_TATTOO_DVS1187'
p1674
g9
sS'ROBIN_HOOD_DVS185'
p1675
g9
sS'THE_GIRL_WITH_THE_DRAGON_TATTOO_DVS1185'
p1676
g9
sS'HOW_DO_YOU_KNOW_DVS52'
p1677
g27
sS'A_GOOD_DAY_TO_DIE_HARD_DVS803'
p1678
g9
sS'PARENTAL_GUIDANCE_DVS239'
p1679
g9
sS'THE_DESCENDANTS_DVS721'
p1680
g16
sS'HOW_DO_YOU_KNOW_DVS55'
p1681
g16
sS'LIFE_OF_PI_DVS950'
p1682
g19
sS'ITS_COMPLICATED_DVS347'
p1683
g9
sS'BRUNO_DVS52'
p1684
g50
sS'KARATE_KID_DVS211'
p1685
g9
sS'KARATE_KID_DVS218'
p1686
g9
sS'IDES_OF_MARCH_DVS365'
p1687
g19
sS'GHOST_RIDER_SPIRIT_OF_VENGEANCE_DVS415'
p1688
g9
sS'COLOMBIANA_DVS386'
p1689
g2
sS'ROBIN_HOOD_DVS365'
p1690
g9
sS'SANCTUM_DVS251'
p1691
g2
sS'SANCTUM_DVS255'
p1692
g2
sS'CAPTAIN_AMERICA_DVS498'
p1693
g2
sS'XMEN_FIRST_CLASS_DVS639'
p1694
g19
sS'GHOST_RIDER_SPIRIT_OF_VENGEANCE_DVS564'
p1695
g63
sS'THE_BOUNTY_HUNTER_DVS510'
p1696
g9
sS'THE_BOUNTY_HUNTER_DVS511'
p1697
g2
sS'WHATS_YOUR_NUMBER_DVS679'
p1698
g9
sS'BATTLE_LOS_ANGELES_DVS285'
p1699
g27
sS'PERCY_JACKSON_LIGHTENING_THIEF_DVS154'
p1700
g19
sS'SANCTUM_DVS387'
p1701
g41
sS'SNOW_FLOWER_FD_DVS397'
p1702
g19
sS'CHARLIE_ST_CLOUD_DVS211'
p1703
g9
sS'BURLESQUE_DVS247'
p1704
g9
sS'BURLESQUE_DVS245'
p1705
g16
sS'A_THOUSAND_WORDS_DVS165'
p1706
g14
sS'GHOST_RIDER_SPIRIT_OF_VENGEANCE_DVS495'
p1707
g19
sS'COLOMBIANA_DVS497'
p1708
g9
sS'WHATS_YOUR_NUMBER_DVS453'
p1709
g2
sS'WHATS_YOUR_NUMBER_DVS450'
p1710
g2
sS'BIG_MOMMAS_LIKE_FATHER_LIKE_SON_DVS237'
p1711
g7
sS'CAPTAIN_AMERICA_DVS125'
p1712
g9
sS'FLIGHT_DVS371'
p1713
g2
sS'JACK_AND_JILL_DVS118'
p1714
g7
sS'BIG_MOMMAS_LIKE_FATHER_LIKE_SON_DVS303'
p1715
g63
sS'BIG_MOMMAS_LIKE_FATHER_LIKE_SON_DVS307'
p1716
g63
sS'WE_BOUGHT_A_ZOO_DVS301'
p1717
g9
sS'COLOMBIANA_DVS697'
p1718
g9
sS'THE_ROOMMATE_DVS324'
p1719
g19
sS'XMEN_FIRST_CLASS_DVS822'
p1720
g27
sS'PROMETHEUS_DVS1076'
p1721
g2
sS'THE_SITTER_DVS131'
p1722
g16
sS'ABRAHAM_LINCOLN_VAMPIRE_HUNTER_DVS388'
p1723
g63
sS'UGLY_TRUTH_DVS322'
p1724
g19
sS'WE_BOUGHT_A_ZOO_DVS786'
p1725
g19
sS'CHASING_MAVERICKS_DVS349'
p1726
g35
sS'CHASING_MAVERICKS_DVS347'
p1727
g50
sS'A_THOUSAND_WORDS_DVS236'
p1728
g9
sS'BIG_MOMMAS_LIKE_FATHER_LIKE_SON_DVS493'
p1729
g41
sS'COLOMBIANA_DVS663'
p1730
g19
sS'UGLY_TRUTH_DVS529'
p1731
g2
sS'BIG_MOMMAS_LIKE_FATHER_LIKE_SON_DVS499'
p1732
g19
sS'A_THOUSAND_WORDS_DVS238'
p1733
g9
sS'THIS_MEANS_WAR_DVS150'
p1734
g50
sS'EASY_A_DVS175'
p1735
g41
sS'EASY_A_DVS174'
p1736
g41
sS'DEATH_AT_A_FUNERAL_DVS285'
p1737
g41
sS'NANNY_MCPHEE_RETURNS_DVS215'
p1738
g9
sS'EASY_A_DVS178'
p1739
g41
sS'KARATE_KID_DVS1386'
p1740
g7
sS'RUBY_SPARKS_DVS245'
p1741
g7
sS'PUBLIC_ENEMIES_DVS466'
p1742
g255
sS'KARATE_KID_DVS1389'
p1743
g9
sS'GHOST_RIDER_SPIRIT_OF_VENGEANCE_DVS62'
p1744
g19
sS'JULIE_AND_JULIA_DVS123'
p1745
g16
sS'PROMETHEUS_DVS838'
p1746
g19
sS'MORNING_GLORY_DVS166'
p1747
g27
sS'MORNING_GLORY_DVS163'
p1748
g9
sS'THE_ADVENTURES_OF_TINTIN_DVS656'
p1749
g27
sS'THE_GUILT_TRIP_DVS279'
p1750
g2
sS'SPARKLE_2012_DVS314'
p1751
g19
sS'GREEN_ZONE_DVS96'
p1752
g19
sS'SPARKLE_2012_DVS310'
p1753
g41
sS'WE_BOUGHT_A_ZOO_DVS824'
p1754
g19
sS'40_YEAR_OLD_VIRGIN_DVS177'
p1755
g27
sS'COLOMBIANA_DVS165'
p1756
g9
sS'TITANIC_1_DVS407'
p1757
g255
sS'TITANIC_1_DVS404'
p1758
g63
sS'TITANIC_1_DVS409'
p1759
g255
sS'LIFE_OF_PI_DVS1005'
p1760
g2
sS'LIFE_OF_PI_DVS1007'
p1761
g50
sS'COLOMBIANA_DVS718'
p1762
g19
sS'A_THOUSAND_WORDS_DVS438'
p1763
g41
sS'COLOMBIANA_DVS710'
p1764
g2
sS'JULIE_AND_JULIA_DVS475'
p1765
g19
sS'KARATE_KID_DVS1633'
p1766
g50
sS'LIFE_OF_PI_DVS816'
p1767
g35
sS'MORNING_GLORY_DVS298'
p1768
g19
sS'LAND_OF_THE_LOST_DVS128'
p1769
g27
sS'GHOST_RIDER_SPIRIT_OF_VENGEANCE_DVS82'
p1770
g9
sS'THE_BIG_YEAR_DVS387'
p1771
g50
sS'GHOST_RIDER_SPIRIT_OF_VENGEANCE_DVS81'
p1772
g9
sS'CHASING_MAVERICKS_DVS46'
p1773
g19
sS'DEAR_JOHN_DVS598'
p1774
g19
sS'DEAR_JOHN_DVS265'
p1775
g19
sS'DEAR_JOHN_DVS593'
p1776
g9
sS'CHASING_MAVERICKS_DVS49'
p1777
g9
sS'TITANIC_2_DVS605'
p1778
g9
sS'DINNER_FOR_SCHMUCKS_DVS212'
p1779
g19
sS'HUGO_DVS792'
p1780
g16
sS'JUST_GO_WITH_IT_DVS131'
p1781
g35
sS'IN_TIME_DVS467'
p1782
g9
sS'GET_HIM_TO_THE_GREEK_DVS17'
p1783
g16
sS'THE_DESCENDANTS_DVS523'
p1784
g41
sS'SPARKLE_2012_DVS171'
p1785
g7
sS'SPARKLE_2012_DVS170'
p1786
g7
sS'INSIDE_MAN_DVS398'
p1787
g19
sS'THE_DESCENDANTS_DVS634'
p1788
g2
sS'COLOMBIANA_DVS1050'
p1789
g27
sS'CHARLIE_ST_CLOUD_DVS96'
p1790
g16
sS'THE_ART_OF_GETTING_BY_DVS131'
p1791
g19
sS'A_GOOD_DAY_TO_DIE_HARD_DVS727'
p1792
g9
sS'CHARLIE_ST_CLOUD_DVS75'
p1793
g2
sS'MR_POPPERS_PENGUINS_DVS308'
p1794
g9
sS'CHARLIE_ST_CLOUD_DVS185'
p1795
g2
sS'ZOOKEEPER_DVS351'
p1796
g16
sS'PARENTAL_GUIDANCE_DVS229'
p1797
g9
sS'MR_POPPERS_PENGUINS_DVS236'
p1798
g7
sS'IN_TIME_DVS190'
p1799
g7
sS'MR_POPPERS_PENGUINS_DVS546'
p1800
g19
sS'21_JUMP_STREET_DVS582'
p1801
g9
sS'PUBLIC_ENEMIES_DVS85'
p1802
g9
sS'21_JUMP_STREET_DVS345'
p1803
g9
sS'21_JUMP_STREET_DVS348'
p1804
g7
sS'30_MINUTES_OR_LESS_DVS340'
p1805
g19
sS'THE_CALL_DVS172'
p1806
g16
sS'THINK_LIKE_A_MAN_DVS369'
p1807
g9
sS'CAPTAIN_AMERICA_DVS265'
p1808
g9
sS'ROBIN_HOOD_DVS195'
p1809
g7
sS'YOUNG_ADULT_DVS229'
p1810
g41
sS'CINDERELLA_MAN_DVS225'
p1811
g9
sS'HANSEL_GRETEL_WITCH_HUNTERS_DVS559'
p1812
g9
sS'SALT_DVS25'
p1813
g41
sS'HANSEL_GRETEL_WITCH_HUNTERS_DVS554'
p1814
g9
sS'ITS_COMPLICATED_DVS219'
p1815
g2
sS'IRON_MAN_2_DVS237'
p1816
g9
sS'SANCTUM_DVS483'
p1817
g19
sS'ITS_COMPLICATED_DVS210'
p1818
g41
sS'KARATE_KID_DVS208'
p1819
g9
sS'IDES_OF_MARCH_DVS373'
p1820
g7
sS'BRUNO_DVS47'
p1821
g9
sS'SANCTUM_DVS249'
p1822
g35
sS'ZOOKEEPER_DVS132'
p1823
g50
sS'HUGO_DVS803'
p1824
g9
sS'HUGO_DVS805'
p1825
g2
sS'GHOST_RIDER_SPIRIT_OF_VENGEANCE_DVS577'
p1826
g63
sS'PERCY_JACKSON_LIGHTENING_THIEF_DVS148'
p1827
g7
sS'LIFE_OF_PI_DVS831'
p1828
g35
sS'HUGO_DVS676'
p1829
g9
sS'LIFE_OF_PI_DVS835'
p1830
g35
sS'ZOMBIELAND_DVS732'
p1831
g2
sS'WE_BOUGHT_A_ZOO_DVS310'
p1832
g2
sS'WHATS_YOUR_NUMBER_DVS683'
p1833
g7
sS'DISTRICT_9_DVS831'
p1834
g2
sS'ABRAHAM_LINCOLN_VAMPIRE_HUNTER_DVS627'
p1835
g9
sS'FLIGHT_DVS94'
p1836
g2
sS'CAPTAIN_AMERICA_DVS134'
p1837
g50
sS'TITANIC_2_DVS721'
p1838
g9
sS'CAPTAIN_AMERICA_DVS647'
p1839
g7
sS'FLIGHT_DVS363'
p1840
g9
sS'CAPTAIN_AMERICA_DVS644'
p1841
g9
sS'DEAR_JOHN_DVS27'
p1842
g35
sS'PARENTAL_GUIDANCE_DVS29'
p1843
g41
sS'CAPTAIN_AMERICA_DVS138'
p1844
g41
sS'TITANIC_1_DVS85'
p1845
g9
sS'THE_WATCH_DVS225'
p1846
g7
sS'THOR_DVS502'
p1847
g9
sS'IRON_MAN_2_DVS656'
p1848
g9
sS'BATTLE_LOS_ANGELES_DVS384'
p1849
g9
sS'KATY_PERRY_PART_OF_ME_DVS117'
p1850
g27
sS'THOR_DVS504'
p1851
g9
sS'THE_ROOMMATE_DVS316'
p1852
g19
sS'GREEN_ZONE_DVS177'
p1853
g19
sS'THE_ROOMMATE_DVS312'
p1854
g9
sS'SUPER_8_DVS521'
p1855
g9
sS'SUPER_8_DVS524'
p1856
g9
sS'LIFE_OF_PI_DVS706'
p1857
g2
sS'UGLY_TRUTH_DVS339'
p1858
g19
sS'A_THOUSAND_WORDS_DVS339'
p1859
g63
sS'THE_WATCH_DVS359'
p1860
g9
sS'BIG_MOMMAS_LIKE_FATHER_LIKE_SON_DVS554'
p1861
g41
sS'BIG_MOMMAS_LIKE_FATHER_LIKE_SON_DVS557'
p1862
g41
sS'SANCTUM_DVS261'
p1863
g35
sS'CAPTAIN_AMERICA_DVS664'
p1864
g19
sS'XMEN_FIRST_CLASS_DVS1335'
p1865
g2
sS'THIS_MEANS_WAR_DVS367'
p1866
g16
sS'CAPTAIN_AMERICA_DVS667'
p1867
g9
sS'NANNY_MCPHEE_RETURNS_DVS418'
p1868
g19
sS'TITANIC_1_DVS235'
p1869
g9
sS'TITANIC_1_DVS230'
p1870
g2
sS'A_THOUSAND_WORDS_DVS201'
p1871
g2
sS'SUPER_8_DVS294'
p1872
g9
sS'30_MINUTES_OR_LESS_DVS344'
p1873
g255
sS'THE_BOUNTY_HUNTER_DVS73'
p1874
g41
sS'30_MINUTES_OR_LESS_DVS181'
p1875
g16
sS'JUST_GO_WITH_IT_DVS28'
p1876
g16
sS'NANNY_MCPHEE_RETURNS_DVS327'
p1877
g255
sS'UGLY_TRUTH_DVS535'
p1878
g9
sS'HUGO_DVS23'
p1879
g9
sS'UGLY_TRUTH_DVS539'
p1880
g63
sS'JULIE_AND_JULIA_DVS228'
p1881
g41
sS'IRON_MAN_2_DVS325'
p1882
g9
sS'PROMETHEUS_DVS730'
p1883
g9
sS'IRON_MAN_2_DVS434'
p1884
g27
sS'NANNY_MCPHEE_RETURNS_DVS80'
p1885
g9
sS'TITANIC_2_DVS706'
p1886
g19
sS'PUBLIC_ENEMIES_DVS473'
p1887
g9
sS'KNOCKED_UP_DVS151'
p1888
g16
sS'XMEN_FIRST_CLASS_DVS1029'
p1889
g16
sS'KNOCKED_UP_DVS154'
p1890
g19
sS'THOR_DVS29'
p1891
g19
sS'KNOCKED_UP_DVS158'
p1892
g9
s.