(dp0
S'KARATE_KID_DVS1602'
p1
S'annotated'
p2
sS'DINNER_FOR_SCHMUCKS_DVS429'
p3
g2
sS'KARATE_KID_DVS1607'
p4
g2
sS'DINNER_FOR_SCHMUCKS_DVS350'
p5
g2
sS'KARATE_KID_DVS1609'
p6
S'annotated'
p7
sS'DEATH_AT_A_FUNERAL_DVS228'
p8
S'annotated'
p9
sS'PROMETHEUS_DVS357'
p10
S'annotated'
p11
sS'LITTLE_FOCKERS_DVS243'
p12
g9
sS'THE_VOW_DVS478'
p13
g11
sS'500DAYSOFSUMMER_DVS526'
p14
S'annotated'
p15
sS'SPARKLE_2012_DVS547'
p16
S'annotated'
p17
sS'GREEN_ZONE_DVS309'
p18
g11
sS'THE_SOCIAL_NETWORK_DVS157'
p19
g9
sS'BATTLE_LOS_ANGELES_DVS83'
p20
g9
sS'BRUNO_DVS188'
p21
g2
sS'500DAYSOFSUMMER_DVS46'
p22
g7
sS'THE_GIRL_WITH_THE_DRAGON_TATTOO_DVS851'
p23
g2
sS'DEAR_JOHN_DVS70'
p24
g9
sS'DEAR_JOHN_DVS71'
p25
g17
sS'THE_GIRL_WITH_THE_DRAGON_TATTOO_DVS672'
p26
S'annotated'
p27
sS'INSIDE_MAN_DVS80'
p28
g27
sS'SPARKLE_2012_DVS300'
p29
g9
sS'PUBLIC_ENEMIES_DVS505'
p30
g9
sS'THOR_DVS558'
p31
g11
sS'DEAR_JOHN_DVS274'
p32
g9
sS'THIS_MEANS_WAR_DVS68'
p33
S'annotated'
p34
sS'DINNER_FOR_SCHMUCKS_DVS221'
p35
g11
sS'JUST_GO_WITH_IT_DVS125'
p36
g2
sS'IN_TIME_DVS453'
p37
g2
sS'JUST_GO_WITH_IT_DVS128'
p38
g27
sS'WHATS_YOUR_NUMBER_DVS463'
p39
g34
sS'WHATS_YOUR_NUMBER_DVS99'
p40
S'annotated'
p41
sS'DEAR_JOHN_DVS475'
p42
g11
sS'COLOMBIANA_DVS906'
p43
g27
sS'THE_ART_OF_GETTING_BY_DVS308'
p44
g9
sS'BURLESQUE_DVS536'
p45
S'annotated'
p46
sS'THE_ART_OF_GETTING_BY_DVS303'
p47
g11
sS'THE_ART_OF_GETTING_BY_DVS300'
p48
g2
sS'THE_DESCENDANTS_DVS602'
p49
g2
sS'MORNING_GLORY_DVS337'
p50
S'annotated'
p51
sS'HUGO_DVS301'
p52
g2
sS'THE_GIRL_WITH_THE_DRAGON_TATTOO_DVS694'
p53
g9
sS'THE_GIRL_WITH_THE_DRAGON_TATTOO_DVS695'
p54
g9
sS'THE_CALL_DVS901'
p55
g2
sS'PARENTAL_GUIDANCE_DVS327'
p56
g27
sS'CHASING_MAVERICKS_DVS327'
p57
g27
sS'CHARLIE_ST_CLOUD_DVS40'
p58
g11
sS'CHARLIE_ST_CLOUD_DVS43'
p59
g51
sS'A_GOOD_DAY_TO_DIE_HARD_DVS738'
p60
g7
sS'THOR_DVS644'
p61
S'annotated'
p62
sS'TOOTH_FAIRY_DVS572'
p63
g17
sS'THOR_DVS641'
p64
g62
sS'THE_BIG_YEAR_DVS236'
p65
g2
sS'ITS_COMPLICATED_DVS59'
p66
g11
sS'ITS_COMPLICATED_DVS360'
p67
g17
sS'BAD_TEACHER_DVS287'
p68
g2
sS'SANCTUM_DVS121'
p69
g2
sS'A_GOOD_DAY_TO_DIE_HARD_DVS821'
p70
g11
sS'TITANIC_2_DVS235'
p71
g11
sS'NO_STRINGS_ATTACHED_DVS330'
p72
g11
sS'TITANIC_2_DVS239'
p73
g11
sS'YOUNG_ADULT_DVS367'
p74
g2
sS'YOUNG_ADULT_DVS360'
p75
g11
sS'YOUNG_ADULT_DVS362'
p76
g9
sS'ZOOKEEPER_DVS343'
p77
g9
sS'YOUNG_ADULT_DVS216'
p78
g27
sS'PARENTAL_GUIDANCE_DVS213'
p79
g11
sS'HANSEL_GRETEL_WITCH_HUNTERS_DVS528'
p80
g11
sS'BLINDDATING_DVS20'
p81
g17
sS'BLINDDATING_DVS28'
p82
g17
sS'IN_TIME_DVS256'
p83
g9
sS'EASY_A_DVS90'
p84
g51
sS'THE_VOW_DVS62'
p85
g17
sS'HOW_DO_YOU_KNOW_DVS97'
p86
g62
sS'SANCTUM_DVS237'
p87
g34
sS'TRUE_GRIT_DVS225'
p88
g2
sS'ZOMBIELAND_DVS581'
p89
g62
sS'THE_BOUNTY_HUNTER_DVS539'
p90
g7
sS'GHOST_RIDER_SPIRIT_OF_VENGEANCE_DVS503'
p91
g9
sS'JACK_AND_JILL_DVS84'
p92
g7
sS'GHOST_RIDER_SPIRIT_OF_VENGEANCE_DVS504'
p93
g9
sS'THE_BIG_YEAR_DVS72'
p94
g11
sS'A_GOOD_DAY_TO_DIE_HARD_DVS917'
p95
g34
sS'CHARLIE_ST_CLOUD_DVS151'
p96
g27
sS'CINDERELLA_MAN_DVS61'
p97
g11
sS'CINDERELLA_MAN_DVS67'
p98
g51
sS'CHARLIE_ST_CLOUD_DVS159'
p99
g9
sS'A_THOUSAND_WORDS_DVS273'
p100
g17
sS'SNOW_FLOWER_FD_DVS377'
p101
g9
sS'BAD_TEACHER_DVS133'
p102
g51
sS'SNOW_FLOWER_FD_DVS373'
p103
g2
sS'A_THOUSAND_WORDS_DVS146'
p104
g15
sS'A_THOUSAND_WORDS_DVS147'
p105
g11
sS'A_THOUSAND_WORDS_DVS144'
p106
g15
sS'A_THOUSAND_WORDS_DVS145'
p107
g2
sS'A_THOUSAND_WORDS_DVS140'
p108
g9
sS'ABRAHAM_LINCOLN_VAMPIRE_HUNTER_DVS635'
p109
g11
sS'ABRAHAM_LINCOLN_VAMPIRE_HUNTER_DVS632'
p110
g62
sS'WHATS_YOUR_NUMBER_DVS239'
p111
g27
sS'THE_ROOMMATE_DVS126'
p112
g11
sS'GHOST_RIDER_SPIRIT_OF_VENGEANCE_DVS186'
p113
g62
sS'GHOST_RIDER_SPIRIT_OF_VENGEANCE_DVS185'
p114
g11
sS'GHOST_RIDER_SPIRIT_OF_VENGEANCE_DVS182'
p115
g11
sS'TITANIC_1_DVS98'
p116
g9
sS'THOR_DVS517'
p117
g62
sS'SUPER_8_DVS510'
p118
g11
sS'SUPER_8_DVS511'
p119
g11
sS'SUPER_8_DVS513'
p120
g11
sS'XMEN_FIRST_CLASS_DVS1302'
p121
g11
sS'A_THOUSAND_WORDS_DVS325'
p122
g27
sS'BIG_MOMMAS_LIKE_FATHER_LIKE_SON_DVS368'
p123
g41
sS'THE_SITTER_DVS119'
p124
g9
sS'KARATE_KID_DVS946'
p125
g11
sS'BIG_MOMMAS_LIKE_FATHER_LIKE_SON_DVS568'
p126
g7
sS'BIG_MOMMAS_LIKE_FATHER_LIKE_SON_DVS565'
p127
g27
sS'KARATE_KID_DVS789'
p128
g27
sS'KARATE_KID_DVS788'
p129
g7
sS'THE_DESCENDANTS_DVS797'
p130
g9
sS'RUBY_SPARKS_DVS427'
p131
g27
sS'KARATE_KID_DVS548'
p132
g17
sS'A_THOUSAND_WORDS_DVS218'
p133
g17
sS'COLOMBIANA_DVS645'
p134
g9
sS'GET_HIM_TO_THE_GREEK_DVS129'
p135
g17
sS'RUBY_SPARKS_DVS192'
p136
g11
sS'HUGO_DVS58'
p137
g11
sS'HUGO_DVS59'
p138
g62
sS'HUGO_DVS57'
p139
g11
sS'JUST_GO_WITH_IT_DVS30'
p140
g41
sS'HUGO_DVS55'
p141
g11
sS'PUBLIC_ENEMIES_DVS198'
p142
g27
sS'TITANIC_1_DVS397'
p143
g2
sS'THE_ADVENTURES_OF_TINTIN_DVS417'
p144
g11
sS'DEAR_JOHN_DVS118'
p145
g34
sS'BIG_MOMMAS_LIKE_FATHER_LIKE_SON_DVS100'
p146
g27
sS'BIG_MOMMAS_LIKE_FATHER_LIKE_SON_DVS104'
p147
g51
sS'BIG_MOMMAS_LIKE_FATHER_LIKE_SON_DVS587'
p148
g11
sS'THE_ADVENTURES_OF_TINTIN_DVS675'
p149
g2
sS'MORNING_GLORY_DVS107'
p150
g9
sS'COLOMBIANA_DVS737'
p151
g51
sS'THE_GIRL_WITH_THE_DRAGON_TATTOO_DVS1421'
p152
g9
sS'CHASING_MAVERICKS_DVS752'
p153
g11
sS'HOW_DO_YOU_KNOW_DVS390'
p154
g11
sS'NANNY_MCPHEE_RETURNS_DVS339'
p155
g17
sS'TITANIC_1_DVS172'
p156
g9
sS'TITANIC_1_DVS173'
p157
g11
sS'NANNY_MCPHEE_RETURNS_DVS337'
p158
g11
sS'UGLY_TRUTH_DVS495'
p159
g7
sS'UGLY_TRUTH_DVS492'
p160
g41
sS'A_THOUSAND_WORDS_DVS453'
p161
g17
sS'40_YEAR_OLD_VIRGIN_DVS111'
p162
g9
sS'JULIE_AND_JULIA_DVS564'
p163
g41
sS'LAND_OF_THE_LOST_DVS148'
p164
g7
sS'SPARKLE_2012_DVS56'
p165
g9
sS'THE_GIRL_WITH_THE_DRAGON_TATTOO_DVS662'
p166
g11
sS'500DAYSOFSUMMER_DVS177'
p167
g15
sS'PUBLIC_ENEMIES_DVS539'
p168
g9
sS'LITTLE_FOCKERS_DVS224'
p169
g41
sS'DEAR_JOHN_DVS246'
p170
g11
sS'30_MINUTES_OR_LESS_DVS313'
p171
g11
sS'GREEN_ZONE_DVS207'
p172
g9
sS'MORNING_GLORY_DVS81'
p173
g51
sS'MORNING_GLORY_DVS85'
p174
g11
sS'TOOTH_FAIRY_DVS123'
p175
g2
sS'TITANIC_2_DVS481'
p176
g7
sS'THE_GIRL_WITH_THE_DRAGON_TATTOO_DVS64'
p177
g11
sS'IN_TIME_DVS448'
p178
g2
sS'MR_POPPERS_PENGUINS_DVS140'
p179
g27
sS'THE_ART_OF_GETTING_BY_DVS201'
p180
g2
sS'THE_CALL_DVS573'
p181
g2
sS'CINDERELLA_MAN_DVS419'
p182
g17
sS'THINK_LIKE_A_MAN_DVS392'
p183
g41
sS'TOOTH_FAIRY_DVS185'
p184
g9
sS'THE_DESCENDANTS_DVS348'
p185
g7
sS'IN_TIME_DVS201'
p186
g9
sS'THINK_LIKE_A_MAN_DVS408'
p187
g2
sS'HUGO_DVS460'
p188
g9
sS'HUGO_DVS467'
p189
g17
sS'TITANIC_2_DVS139'
p190
g11
sS'MR_POPPERS_PENGUINS_DVS493'
p191
g2
sS'FRIENDS_WITH_BENEFITS_DVS249'
p192
g2
sS'THE_ART_OF_GETTING_BY_DVS115'
p193
g9
sS'THE_ART_OF_GETTING_BY_DVS112'
p194
g27
sS'A_GOOD_DAY_TO_DIE_HARD_DVS54'
p195
g15
sS'THE_CALL_DVS484'
p196
g9
sS'THE_BOUNTY_HUNTER_DVS189'
p197
g27
sS'ABRAHAM_LINCOLN_VAMPIRE_HUNTER_DVS68'
p198
g9
sS'ITS_COMPLICATED_DVS399'
p199
g27
sS'THE_VOW_DVS52'
p200
g9
sS'FLIGHT_DVS139'
p201
g2
sS'TRUE_GRIT_DVS141'
p202
g34
sS'THIS_MEANS_WAR_DVS183'
p203
g9
sS'IDES_OF_MARCH_DVS34'
p204
g7
sS'THE_BOUNTY_HUNTER_DVS253'
p205
g27
sS'COLOMBIANA_DVS497'
p206
g11
sS'THOR_DVS189'
p207
g62
sS'BATTLE_LOS_ANGELES_DVS250'
p208
g41
sS'COLOMBIANA_DVS134'
p209
g17
sS'SANCTUM_DVS223'
p210
g2
sS'BURLESQUE_DVS383'
p211
g27
sS'TRUE_GRIT_DVS496'
p212
g9
sS'CHASING_MAVERICKS_DVS117'
p213
g11
sS'LIFE_OF_PI_DVS987'
p214
g34
sS'ZOMBIELAND_DVS224'
p215
g27
sS'GHOST_RIDER_SPIRIT_OF_VENGEANCE_DVS516'
p216
g11
sS'SNOW_FLOWER_FD_DVS964'
p217
g11
sS'CHARLIE_ST_CLOUD_DVS140'
p218
g11
sS'JUST_GO_WITH_IT_DVS258'
p219
g27
sS'ITS_COMPLICATED_DVS163'
p220
g17
sS'THINK_LIKE_A_MAN_DVS384'
p221
g2
sS'KARATE_KID_DVS319'
p222
g9
sS'CHASING_MAVERICKS_DVS200'
p223
S'annotated'
p224
sS'CAPTAIN_AMERICA_DVS584'
p225
g224
sS'TRUE_GRIT_DVS560'
p226
g2
sS'ABRAHAM_LINCOLN_VAMPIRE_HUNTER_DVS608'
p227
S'annotated'
p228
sS'LIFE_OF_PI_DVS676'
p229
g34
sS'A_THOUSAND_WORDS_DVS138'
p230
g2
sS'ABRAHAM_LINCOLN_VAMPIRE_HUNTER_DVS604'
p231
g2
sS'ABRAHAM_LINCOLN_VAMPIRE_HUNTER_DVS287'
p232
g2
sS'ABRAHAM_LINCOLN_VAMPIRE_HUNTER_DVS286'
p233
g11
sS'CAPTAIN_AMERICA_DVS113'
p234
g2
sS'THE_ROOMMATE_DVS158'
p235
g11
sS'GHOST_RIDER_SPIRIT_OF_VENGEANCE_DVS191'
p236
g27
sS'40_YEAR_OLD_VIRGIN_DVS222'
p237
g2
sS'KATY_PERRY_PART_OF_ME_DVS139'
p238
g11
sS'THOR_DVS526'
p239
g62
sS'THOR_DVS523'
p240
g11
sS'COLOMBIANA_DVS221'
p241
g9
sS'LIFE_OF_PI_DVS270'
p242
g2
sS'TITANIC_2_DVS660'
p243
g7
sS'SUPER_8_DVS507'
p244
g11
sS'SUPER_8_DVS505'
p245
g51
sS'SUPER_8_DVS509'
p246
g51
sS'XMEN_FIRST_CLASS_DVS1316'
p247
g9
sS'ABRAHAM_LINCOLN_VAMPIRE_HUNTER_DVS516'
p248
g11
sS'XMEN_FIRST_CLASS_DVS926'
p249
g17
sS'ABRAHAM_LINCOLN_VAMPIRE_HUNTER_DVS462'
p250
g9
sS'KARATE_KID_DVS820'
p251
g9
sS'WE_BOUGHT_A_ZOO_DVS803'
p252
g17
sS'BIG_MOMMAS_LIKE_FATHER_LIKE_SON_DVS572'
p253
g9
sS'BIG_MOMMAS_LIKE_FATHER_LIKE_SON_DVS576'
p254
g11
sS'WE_BOUGHT_A_ZOO_DVS772'
p255
g11
sS'THE_WATCH_DVS373'
p256
g9
sS'KARATE_KID_DVS552'
p257
S'annotated'
p258
sS'WE_BOUGHT_A_ZOO_DVS571'
p259
g9
sS'30_MINUTES_OR_LESS_DVS323'
p260
g41
sS'WE_BOUGHT_A_ZOO_DVS157'
p261
g7
sS'A_THOUSAND_WORDS_DVS264'
p262
g2
sS'THE_WATCH_DVS559'
p263
g51
sS'THE_BOUNTY_HUNTER_DVS57'
p264
g9
sS'UGLY_TRUTH_DVS554'
p265
g2
sS'WE_BOUGHT_A_ZOO_DVS596'
p266
g9
sS'LITTLE_FOCKERS_DVS41'
p267
g27
sS'SALT_DVS117'
p268
g9
sS'UGLY_TRUTH_DVS551'
p269
g41
sS'GET_HIM_TO_THE_GREEK_DVS111'
p270
g7
sS'NANNY_MCPHEE_RETURNS_DVS185'
p271
g11
sS'BLINDDATING_DVS148'
p272
g9
sS'TITANIC_1_DVS387'
p273
g34
sS'UGLY_TRUTH_DVS313'
p274
g7
sS'TITANIC_1_DVS381'
p275
g11
sS'TITANIC_1_DVS382'
p276
g62
sS'KATY_PERRY_PART_OF_ME_DVS245'
p277
g62
sS'THIS_MEANS_WAR_DVS232'
p278
g11
sS'BIG_MOMMAS_LIKE_FATHER_LIKE_SON_DVS119'
p279
g51
sS'500DAYSOFSUMMER_DVS349'
p280
g7
sS'THE_GIRL_WITH_THE_DRAGON_TATTOO_DVS699'
p281
g2
sS'THE_WATCH_DVS159'
p282
g11
sS'BATTLE_LOS_ANGELES_DVS409'
p283
g11
sS'GREEN_ZONE_DVS364'
p284
g11
sS'BIG_MOMMAS_LIKE_FATHER_LIKE_SON_DVS596'
p285
g2
sS'KARATE_KID_DVS1370'
p286
g7
sS'KARATE_KID_DVS1372'
p287
g7
sS'MORNING_GLORY_DVS132'
p288
g17
sS'DINNER_FOR_SCHMUCKS_DVS401'
p289
g41
sS'HOW_DO_YOU_KNOW_DVS540'
p290
g9
sS'HOW_DO_YOU_KNOW_DVS388'
p291
g9
sS'TITANIC_1_DVS504'
p292
g2
sS'PROMETHEUS_DVS971'
p293
g11
sS'WHATS_YOUR_NUMBER_DVS716'
p294
g11
sS'TITANIC_1_DVS165'
p295
g2
sS'SPARKLE_2012_DVS566'
p296
g41
sS'BIG_MOMMAS_LIKE_FATHER_LIKE_SON_DVS603'
p297
g11
sS'BIG_MOMMAS_LIKE_FATHER_LIKE_SON_DVS609'
p298
g11
sS'LAND_OF_THE_LOST_DVS171'
p299
g7
sS'500DAYSOFSUMMER_DVS66'
p300
g41
sS'500DAYSOFSUMMER_DVS65'
p301
g15
sS'THE_GIRL_WITH_THE_DRAGON_TATTOO_DVS836'
p302
g9
sS'SPARKLE_2012_DVS364'
p303
g27
sS'KARATE_KID_DVS1091'
p304
g9
sS'SNOW_FLOWER_FD_DVS1202'
p305
g7
sS'TOOTH_FAIRY_DVS673'
p306
g2
sS'IN_TIME_DVS523'
p307
g11
sS'DEATH_AT_A_FUNERAL_DVS253'
p308
g9
sS'THE_ADVENTURES_OF_TINTIN_DVS283'
p309
g11
sS'THE_VOW_DVS129'
p310
g27
sS'TITANIC_2_DVS124'
p311
g11
sS'THE_CALL_DVS886'
p312
g9
sS'CINDERELLA_MAN_DVS131'
p313
g27
sS'SALT_DVS482'
p314
g17
sS'TOOTH_FAIRY_DVS178'
p315
g9
sS'MORNING_GLORY_DVS482'
p316
g9
sS'THE_GIRL_WITH_THE_DRAGON_TATTOO_DVS306'
p317
g9
sS'SPARKLE_2012_DVS180'
p318
g9
sS'CINDERELLA_MAN_DVS221'
p319
g11
sS'FLIGHT_DVS909'
p320
g258
sS'KARATE_KID_DVS1407'
p321
g62
sS'THINK_LIKE_A_MAN_DVS166'
p322
g9
sS'LITTLE_FOCKERS_DVS155'
p323
g9
sS'HUGO_DVS457'
p324
g7
sS'THOR_DVS664'
p325
g11
sS'HANSEL_GRETEL_WITCH_HUNTERS_DVS321'
p326
g27
sS'THE_ART_OF_GETTING_BY_DVS103'
p327
g9
sS'A_GOOD_DAY_TO_DIE_HARD_DVS203'
p328
g2
sS'THE_ART_OF_GETTING_BY_DVS105'
p329
g7
sS'HANSEL_GRETEL_WITCH_HUNTERS_DVS326'
p330
g27
sS'HANSEL_GRETEL_WITCH_HUNTERS_DVS437'
p331
g2
sS'THE_ART_OF_GETTING_BY_DVS213'
p332
g9
sS'JUST_GO_WITH_IT_DVS318'
p333
g62
sS'PUBLIC_ENEMIES_DVS78'
p334
g2
sS'DISTRICT_9_DVS793'
p335
g11
sS'ITS_COMPLICATED_DVS380'
p336
g9
sS'TITANIC_2_DVS212'
p337
g9
sS'TITANIC_2_DVS210'
p338
g11
sS'TITANIC_2_DVS211'
p339
g11
sS'FRIENDS_WITH_BENEFITS_DVS344'
p340
g41
sS'FRIENDS_WITH_BENEFITS_DVS346'
p341
g2
sS'HANSEL_GRETEL_WITCH_HUNTERS_DVS502'
p342
g11
sS'TITANIC_2_DVS454'
p343
g2
sS'IDES_OF_MARCH_DVS25'
p344
g7
sS'IDES_OF_MARCH_DVS21'
p345
g7
sS'THINK_LIKE_A_MAN_DVS218'
p346
g27
sS'CAPTAIN_AMERICA_DVS233'
p347
g11
sS'CAPTAIN_AMERICA_DVS230'
p348
g51
sS'CAPTAIN_AMERICA_DVS236'
p349
g11
sS'A_GOOD_DAY_TO_DIE_HARD_DVS688'
p350
g2
sS'SOUL_SURFER_DVS256'
p351
g9
sS'BATTLE_LOS_ANGELES_DVS244'
p352
g27
sS'COLOMBIANA_DVS104'
p353
g258
sS'CHASING_MAVERICKS_DVS164'
p354
g2
sS'YOUNG_ADULT_DVS411'
p355
g2
sS'THE_BOUNTY_HUNTER_DVS558'
p356
g258
sS'CAPTAIN_AMERICA_DVS343'
p357
g11
sS'THOR_DVS441'
p358
g51
sS'CHARLIE_ST_CLOUD_DVS176'
p359
g9
sS'JUST_GO_WITH_IT_DVS260'
p360
g27
sS'JUST_GO_WITH_IT_DVS266'
p361
g2
sS'THE_ADVENTURES_OF_TINTIN_DVS577'
p362
g11
sS'ITS_COMPLICATED_DVS154'
p363
g27
sS'PERCY_JACKSON_LIGHTENING_THIEF_DVS266'
p364
g11
sS'GHOST_RIDER_SPIRIT_OF_VENGEANCE_DVS525'
p365
g11
sS'GHOST_RIDER_SPIRIT_OF_VENGEANCE_DVS527'
p366
g11
sS'CAPTAIN_AMERICA_DVS560'
p367
g11
sS'LIFE_OF_PI_DVS888'
p368
g9
sS'GHOST_RIDER_SPIRIT_OF_VENGEANCE_DVS528'
p369
g11
sS'30_MINUTES_OR_LESS_DVS208'
p370
g228
sS'THE_ROOMMATE_DVS142'
p371
g2
sS'PUBLIC_ENEMIES_DVS96'
p372
g11
sS'XMEN_FIRST_CLASS_DVS1084'
p373
g9
sS'JACK_AND_JILL_DVS155'
p374
g11
sS'KATY_PERRY_PART_OF_ME_DVS156'
p375
g11
sS'GREEN_ZONE_DVS180'
p376
g17
sS'KATY_PERRY_PART_OF_ME_DVS55'
p377
g7
sS'SOUL_SURFER_DVS253'
p378
g27
sS'KARATE_KID_DVS969'
p379
g11
sS'BIG_MOMMAS_LIKE_FATHER_LIKE_SON_DVS554'
p380
g41
sS'KARATE_KID_DVS965'
p381
g9
sS'KARATE_KID_DVS964'
p382
g2
sS'FLIGHT_DVS488'
p383
g2
sS'KARATE_KID_DVS769'
p384
g11
sS'XMEN_FIRST_CLASS_DVS952'
p385
g9
sS'IN_TIME_DVS950'
p386
g9
sS'THE_WATCH_DVS302'
p387
g62
sS'IRON_MAN_2_DVS593'
p388
g11
sS'BIG_MOMMAS_LIKE_FATHER_LIKE_SON_DVS294'
p389
g2
sS'IRON_MAN_2_DVS594'
p390
g11
sS'30_MINUTES_OR_LESS_DVS337'
p391
g11
sS'EASY_A_DVS133'
p392
g27
sS'SORCERERS_APPRENTICE_DVS144'
p393
g17
sS'TITANIC_2_DVS237'
p394
g11
sS'SUPER_8_DVS405'
p395
g11
sS'THE_ADVENTURES_OF_TINTIN_DVS273'
p396
g2
sS'ZOMBIELAND_DVS49'
p397
g11
sS'TITANIC_1_DVS286'
p398
g2
sS'THE_WATCH_DVS520'
p399
g11
sS'HOW_DO_YOU_KNOW_DVS151'
p400
g11
sS'HOW_DO_YOU_KNOW_DVS710'
p401
g17
sS'UGLY_TRUTH_DVS363'
p402
g41
sS'THE_WATCH_DVS410'
p403
g27
sS'THE_ADVENTURES_OF_TINTIN_DVS473'
p404
g62
sS'TITANIC_1_DVS374'
p405
g11
sS'WE_BOUGHT_A_ZOO_DVS124'
p406
g9
sS'RUBY_SPARKS_DVS574'
p407
g51
sS'THE_SOCIAL_NETWORK_DVS86'
p408
g41
sS'CHASING_MAVERICKS_DVS412'
p409
g2
sS'500DAYSOFSUMMER_DVS375'
p410
g15
sS'WE_BOUGHT_A_ZOO_DVS467'
p411
g9
sS'TITANIC_1_DVS305'
p412
g11
sS'THE_BOUNTY_HUNTER_DVS345'
p413
g62
sS'BURLESQUE_DVS213'
p414
g62
sS'RUBY_SPARKS_DVS378'
p415
g11
sS'TITANIC_1_DVS115'
p416
g11
sS'TITANIC_1_DVS116'
p417
g11
sS'TITANIC_1_DVS117'
p418
g11
sS'TITANIC_1_DVS112'
p419
g2
sS'THE_SOCIAL_NETWORK_DVS163'
p420
g9
sS'HOW_DO_YOU_KNOW_DVS442'
p421
g17
sS'DEAR_JOHN_DVS28'
p422
g34
sS'LAND_OF_THE_LOST_DVS160'
p423
g27
sS'SPARKLE_2012_DVS228'
p424
g11
sS'THE_GIRL_WITH_THE_DRAGON_TATTOO_DVS822'
p425
g27
sS'500DAYSOFSUMMER_DVS150'
p426
g15
sS'DEAR_JOHN_DVS719'
p427
g9
sS'THE_BIG_YEAR_DVS587'
p428
g11
sS'SUPER_8_DVS229'
p429
g11
sS'BURLESQUE_DVS610'
p430
g11
sS'CAPTAIN_AMERICA_DVS314'
p431
g11
sS'INSIDE_MAN_DVS32'
p432
g11
sS'MORNING_GLORY_DVS68'
p433
g2
sS'THE_GIRL_WITH_THE_DRAGON_TATTOO_DVS220'
p434
g51
sS'YOUNG_ADULT_DVS90'
p435
g11
sS'TOOTH_FAIRY_DVS169'
p436
g2
sS'SUPER_8_DVS565'
p437
g11
sS'SALT_DVS107'
p438
g9
sS'MORNING_GLORY_DVS499'
p439
g11
sS'COLOMBIANA_DVS977'
p440
g2
sS'TITANIC_2_DVS739'
p441
g11
sS'ITS_COMPLICATED_DVS374'
p442
g41
sS'THE_VOW_DVS201'
p443
g11
sS'TITANIC_2_DVS732'
p444
g2
sS'HUGO_DVS441'
p445
g11
sS'A_GOOD_DAY_TO_DIE_HARD_DVS560'
p446
g11
sS'IN_TIME_DVS556'
p447
g11
sS'THE_SITTER_DVS83'
p448
g11
sS'THE_SITTER_DVS84'
p449
g11
sS'THE_DESCENDANTS_DVS148'
p450
g34
sS'THINK_LIKE_A_MAN_DVS518'
p451
g9
sS'TITANIC_1_DVS280'
p452
g11
sS'TOOTH_FAIRY_DVS306'
p453
g11
sS'THE_ART_OF_GETTING_BY_DVS265'
p454
g11
sS'THE_BOUNTY_HUNTER_DVS432'
p455
g9
sS'PERCY_JACKSON_LIGHTENING_THIEF_DVS409'
p456
g2
sS'A_GOOD_DAY_TO_DIE_HARD_DVS304'
p457
g51
sS'ZOMBIELAND_DVS685'
p458
g62
sS'UGLY_TRUTH_DVS367'
p459
g17
sS'HANSEL_GRETEL_WITCH_HUNTERS_DVS422'
p460
g27
sS'MR_POPPERS_PENGUINS_DVS580'
p461
g17
sS'HANSEL_GRETEL_WITCH_HUNTERS_DVS426'
p462
g27
sS'TITANIC_2_DVS200'
p463
g9
sS'TOOTH_FAIRY_DVS436'
p464
g7
sS'TITANIC_2_DVS207'
p465
g11
sS'GREEN_ZONE_DVS34'
p466
g27
sS'THE_ADVENTURES_OF_TINTIN_DVS61'
p467
g2
sS'BURLESQUE_DVS395'
p468
g2
sS'CINDERELLA_MAN_DVS193'
p469
g17
sS'MR_POPPERS_PENGUINS_DVS344'
p470
g51
sS'CAPTAIN_AMERICA_DVS223'
p471
g11
sS'CAPTAIN_AMERICA_DVS226'
p472
g11
sS'DISTRICT_9_DVS546'
p473
g9
sS'PERCY_JACKSON_LIGHTENING_THIEF_DVS313'
p474
g11
sS'PERCY_JACKSON_LIGHTENING_THIEF_DVS312'
p475
g11
sS'ROBIN_HOOD_DVS134'
p476
g11
sS'CHASING_MAVERICKS_DVS522'
p477
S'annotated'
p478
sS'LIFE_OF_PI_DVS509'
p479
g2
sS'CAPTAIN_AMERICA_DVS355'
p480
g11
sS'LIFE_OF_PI_DVS506'
p481
g2
sS'MR_POPPERS_PENGUINS_DVS192'
p482
g11
sS'CAPTAIN_AMERICA_DVS352'
p483
g11
sS'A_GOOD_DAY_TO_DIE_HARD_DVS789'
p484
g11
sS'CHARLIE_ST_CLOUD_DVS168'
p485
g9
sS'CHARLIE_ST_CLOUD_DVS169'
p486
g51
sS'CHARLIE_ST_CLOUD_DVS162'
p487
g11
sS'CHARLIE_ST_CLOUD_DVS163'
p488
g51
sS'ABRAHAM_LINCOLN_VAMPIRE_HUNTER_DVS665'
p489
g11
sS'PERCY_JACKSON_LIGHTENING_THIEF_DVS272'
p490
g2
sS'COLOMBIANA_DVS209'
p491
g9
sS'ITS_COMPLICATED_DVS145'
p492
g7
sS'JACK_AND_JILL_DVS30'
p493
g7
sS'SANCTUM_DVS373'
p494
g9
sS'MR_POPPERS_PENGUINS_DVS612'
p495
g9
sS'LIFE_OF_PI_DVS472'
p496
g2
sS'ZOMBIELAND_DVS666'
p497
g51
sS'DISTRICT_9_DVS769'
p498
g11
sS'CAPTAIN_AMERICA_DVS174'
p499
g9
sS'THOR_DVS542'
p500
g11
sS'NO_STRINGS_ATTACHED_DVS388'
p501
g11
sS'KATY_PERRY_PART_OF_ME_DVS48'
p502
g7
sS'THE_ROOMMATE_DVS197'
p503
g11
sS'NO_STRINGS_ATTACHED_DVS122'
p504
g41
sS'TOOTH_FAIRY_DVS892'
p505
g17
sS'WHATS_YOUR_NUMBER_DVS575'
p506
g11
sS'THE_WATCH_DVS52'
p507
g11
sS'XMEN_FIRST_CLASS_DVS765'
p508
g27
sS'IDES_OF_MARCH_DVS191'
p509
g27
sS'WHATS_YOUR_NUMBER_DVS485'
p510
g17
sS'ABRAHAM_LINCOLN_VAMPIRE_HUNTER_DVS404'
p511
g11
sS'CINDERELLA_MAN_DVS69'
p512
g11
sS'FLIGHT_DVS1244'
p513
g41
sS'THE_WATCH_DVS319'
p514
g11
sS'CHRONICLE_DVS107'
p515
g11
sS'500DAYSOFSUMMER_DVS367'
p516
g9
sS'THE_DESCENDANTS_DVS39'
p517
g17
sS'SUPER_8_DVS412'
p518
g11
sS'THE_DESCENDANTS_DVS35'
p519
g17
sS'HUGO_DVS67'
p520
g2
sS'HUGO_DVS66'
p521
g2
sS'HUGO_DVS64'
p522
g11
sS'A_THOUSAND_WORDS_DVS240'
p523
g11
sS'HUGO_DVS61'
p524
g11
sS'RUBY_SPARKS_DVS142'
p525
g11
sS'TITANIC_1_DVS290'
p526
g11
sS'KARATE_KID_DVS971'
p527
g27
sS'CHARLIE_ST_CLOUD_DVS289'
p528
g11
sS'XMEN_FIRST_CLASS_DVS1067'
p529
g2
sS'WE_BOUGHT_A_ZOO_DVS138'
p530
g9
sS'COLOMBIANA_DVS763'
p531
g11
sS'BATTLE_LOS_ANGELES_DVS467'
p532
g17
sS'KARATE_KID_DVS1314'
p533
g11
sS'GREEN_ZONE_DVS347'
p534
g9
sS'SUPER_8_DVS306'
p535
g11
sS'WE_BOUGHT_A_ZOO_DVS626'
p536
g11
sS'THIS_MEANS_WAR_DVS458'
p537
g62
sS'PROMETHEUS_DVS365'
p538
g11
sS'SPARKLE_2012_DVS504'
p539
g9
sS'SPARKLE_2012_DVS507'
p540
g11
sS'THE_SOCIAL_NETWORK_DVS112'
p541
g11
sS'XMEN_FIRST_CLASS_DVS1111'
p542
g7
sS'ITS_COMPLICATED_DVS7'
p543
g41
sS'KARATE_KID_DVS1081'
p544
g11
sS'UGLY_TRUTH_DVS603'
p545
g9
sS'GREEN_ZONE_DVS236'
p546
g9
sS'IRON_MAN_2_DVS43'
p547
g11
sS'THIS_MEANS_WAR_DVS26'
p548
g62
sS'THIS_MEANS_WAR_DVS22'
p549
g11
sS'BATTLE_LOS_ANGELES_DVS43'
p550
g27
sS'CHASING_MAVERICKS_DVS214'
p551
g62
sS'THE_VOW_DVS696'
p552
g9
sS'DEAR_JOHN_DVS631'
p553
g9
sS'PROMETHEUS_DVS97'
p554
g7
sS'UGLY_TRUTH_DVS477'
p555
g51
sS'21_JUMP_STREET_DVS42'
p556
g11
sS'500DAYSOFSUMMER_DVS143'
p557
g15
sS'HUGO_DVS89'
p558
g17
sS'DEATH_AT_A_FUNERAL_DVS275'
p559
g2
sS'UGLY_TRUTH_DVS594'
p560
g9
sS'CINDERELLA_MAN_DVS335'
p561
g11
sS'SNOW_FLOWER_FD_DVS1053'
p562
g2
sS'LITTLE_FOCKERS_DVS137'
p563
g27
sS'SPARKLE_2012_DVS232'
p564
g11
sS'THINK_LIKE_A_MAN_DVS348'
p565
g41
sS'SUPER_8_DVS125'
p566
g11
sS'MORNING_GLORY_DVS465'
p567
g11
sS'SPARKLE_2012_DVS239'
p568
g7
sS'TOOTH_FAIRY_DVS150'
p569
g9
sS'BURLESQUE_DVS571'
p570
g27
sS'KARATE_KID_DVS1424'
p571
g62
sS'THE_DESCENDANTS_DVS313'
p572
g9
sS'KARATE_KID_DVS1427'
p573
g51
sS'THE_BOUNTY_HUNTER_DVS398'
p574
g17
sS'HUGO_DVS128'
p575
g11
sS'HUGO_DVS438'
p576
g2
sS'MORNING_GLORY_DVS208'
p577
g11
sS'BRUNO_DVS127'
p578
g11
sS'MR_POPPERS_PENGUINS_DVS171'
p579
g11
sS'A_GOOD_DAY_TO_DIE_HARD_DVS171'
p580
g7
sS'TITANIC_2_DVS144'
p581
g7
sS'THE_SOCIAL_NETWORK_DVS299'
p582
g11
sS'TOOTH_FAIRY_DVS330'
p583
g9
sS'HUGO_DVS722'
p584
g11
sS'HUGO_DVS721'
p585
g11
sS'HUGO_DVS726'
p586
g11
sS'HUGO_DVS729'
p587
g11
sS'THE_VOW_DVS85'
p588
g7
sS'BLINDDATING_DVS69'
p589
S'annotated'
p590
sS'PARENTAL_GUIDANCE_DVS252'
p591
g17
sS'THE_CALL_DVS199'
p592
g17
sS'PUBLIC_ENEMIES_DVS50'
p593
g11
sS'PUBLIC_ENEMIES_DVS53'
p594
g11
sS'PUBLIC_ENEMIES_DVS52'
p595
g11
sS'DEAR_JOHN_DVS213'
p596
g41
sS'21_JUMP_STREET_DVS395'
p597
g9
sS'LAND_OF_THE_LOST_DVS242'
p598
g11
sS'LAND_OF_THE_LOST_DVS246'
p599
g51
sS'A_THOUSAND_WORDS_DVS236'
p600
g11
sS'CAPTAIN_AMERICA_DVS218'
p601
g51
sS'FRIENDS_WITH_BENEFITS_DVS276'
p602
g34
sS'WHATS_YOUR_NUMBER_DVS77'
p603
g9
sS'CAPTAIN_AMERICA_DVS217'
p604
g11
sS'CAPTAIN_AMERICA_DVS211'
p605
g11
sS'21_JUMP_STREET_DVS448'
p606
g11
sS'JUST_GO_WITH_IT_DVS208'
p607
g51
sS'ITS_COMPLICATED_DVS36'
p608
g9
sS'CINDERELLA_MAN_DVS20'
p609
g11
sS'GHOST_RIDER_SPIRIT_OF_VENGEANCE_DVS322'
p610
g17
sS'GHOST_RIDER_SPIRIT_OF_VENGEANCE_DVS320'
p611
g51
sS'COLOMBIANA_DVS166'
p612
g62
sS'COLOMBIANA_DVS160'
p613
g11
sS'21_JUMP_STREET_DVS287'
p614
g15
sS'ZOMBIELAND_DVS274'
p615
g51
sS'THE_BOUNTY_HUNTER_DVS578'
p616
g7
sS'ROBIN_HOOD_DVS214'
p617
g11
sS'21_JUMP_STREET_DVS665'
p618
g51
sS'GREEN_ZONE_DVS437'
p619
g11
sS'CAPTAIN_AMERICA_DVS540'
p620
g11
sS'CAPTAIN_AMERICA_DVS542'
p621
g258
sS'CAPTAIN_AMERICA_DVS545'
p622
g11
sS'ZOMBIELAND_DVS650'
p623
g11
sS'GHOST_RIDER_SPIRIT_OF_VENGEANCE_DVS252'
p624
g2
sS'ABRAHAM_LINCOLN_VAMPIRE_HUNTER_DVS277'
p625
g11
sS'JACK_AND_JILL_DVS402'
p626
g2
sS'DISTRICT_9_DVS207'
p627
g7
sS'FRIENDS_WITH_BENEFITS_DVS384'
p628
g258
sS'EASY_A_DVS51'
p629
g27
sS'BATTLE_LOS_ANGELES_DVS682'
p630
g51
sS'JULIE_AND_JULIA_DVS88'
p631
g27
sS'WHATS_YOUR_NUMBER_DVS743'
p632
g11
sS'WHATS_YOUR_NUMBER_DVS740'
p633
g7
sS'LIFE_OF_PI_DVS222'
p634
g9
sS'THE_ROOMMATE_DVS347'
p635
g9
sS'TITANIC_1_DVS37'
p636
g11
sS'SANCTUM_DVS417'
p637
g17
sS'SANCTUM_DVS410'
p638
g34
sS'SORCERERS_APPRENTICE_DVS99'
p639
g9
sS'KARATE_KID_DVS742'
p640
g9
sS'THE_WATCH_DVS328'
p641
g41
sS'21_JUMP_STREET_DVS266'
p642
g27
sS'ITS_COMPLICATED_DVS280'
p643
g7
sS'THE_WATCH_DVS322'
p644
g11
sS'21_JUMP_STREET_DVS269'
p645
g11
sS'21_JUMP_STREET_DVS36'
p646
g11
sS'LIFE_OF_PI_DVS139'
p647
g9
sS'IRON_MAN_2_DVS557'
p648
g11
sS'RUBY_SPARKS_DVS488'
p649
g11
sS'BLINDDATING_DVS196'
p650
g2
sS'TITANIC_1_DVS76'
p651
g11
sS'LAND_OF_THE_LOST_DVS29'
p652
g27
sS'DINNER_FOR_SCHMUCKS_DVS75'
p653
g17
sS'THE_ADVENTURES_OF_TINTIN_DVS457'
p654
g27
sS'CHARLIE_ST_CLOUD_DVS290'
p655
g11
sS'TITANIC_1_DVS357'
p656
g11
sS'UGLY_TRUTH_DVS340'
p657
g2
sS'BLINDDATING_DVS285'
p658
g11
sS'COLOMBIANA_DVS410'
p659
g2
sS'NANNY_MCPHEE_RETURNS_DVS35'
p660
g7
sS'THE_WATCH_DVS184'
p661
g2
sS'BURLESQUE_DVS746'
p662
g11
sS'LARRY_CROWNE_DVS138'
p663
g9
sS'HOW_DO_YOU_KNOW_DVS283'
p664
g27
sS'KARATE_KID_DVS1305'
p665
g11
sS'CINDERELLA_MAN_DVS37'
p666
g11
sS'THE_ADVENTURES_OF_TINTIN_DVS632'
p667
g11
sS'THE_ADVENTURES_OF_TINTIN_DVS636'
p668
g2
sS'NANNY_MCPHEE_RETURNS_DVS377'
p669
g2
sS'WE_BOUGHT_A_ZOO_DVS653'
p670
g11
sS'KATY_PERRY_PART_OF_ME_DVS321'
p671
g7
sS'TITANIC_1_DVS133'
p672
g11
sS'TITANIC_1_DVS130'
p673
g9
sS'500DAYSOFSUMMER_DVS227'
p674
g11
sS'COLOMBIANA_DVS576'
p675
g9
sS'ABRAHAM_LINCOLN_VAMPIRE_HUNTER_DVS353'
p676
g11
sS'KARATE_KID_DVS1230'
p677
g9
sS'THIS_MEANS_WAR_DVS481'
p678
g258
sS'NANNY_MCPHEE_RETURNS_DVS390'
p679
g17
sS'THIS_MEANS_WAR_DVS34'
p680
g9
sS'BATTLE_LOS_ANGELES_DVS76'
p681
g9
sS'IN_TIME_DVS607'
p682
g2
sS'TOOTH_FAIRY_DVS28'
p683
g9
sS'500DAYSOFSUMMER_DVS133'
p684
g15
sS'SANCTUM_DVS40'
p685
g27
sS'BATTLE_LOS_ANGELES_DVS527'
p686
g9
sS'BATTLE_LOS_ANGELES_DVS525'
p687
g9
sS'BATTLE_LOS_ANGELES_DVS524'
p688
g41
sS'BATTLE_LOS_ANGELES_DVS523'
p689
g11
sS'LIFE_OF_PI_DVS550'
p690
g2
sS'SPARKLE_2012_DVS394'
p691
g17
sS'MORNING_GLORY_DVS49'
p692
g41
sS'MORNING_GLORY_DVS46'
p693
g17
sS'TOOTH_FAIRY_DVS94'
p694
g9
sS'MORNING_GLORY_DVS475'
p695
g11
sS'40_YEAR_OLD_VIRGIN_DVS209'
p696
g7
sS'THOR_DVS316'
p697
g11
sS'SUPER_8_DVS173'
p698
g11
sS'MORNING_GLORY_DVS476'
p699
g11
sS'BURLESQUE_DVS565'
p700
g41
sS'SUPER_8_DVS116'
p701
g11
sS'RUBY_SPARKS_DVS28'
p702
g11
sS'THE_ADVENTURES_OF_TINTIN_DVS69'
p703
g11
sS'COLOMBIANA_DVS426'
p704
g27
sS'KARATE_KID_DVS1430'
p705
g7
sS'CHRONICLE_DVS30'
p706
g7
sS'A_GOOD_DAY_TO_DIE_HARD_DVS541'
p707
g11
sS'THE_CALL_DVS281'
p708
g9
sS'THE_ADVENTURES_OF_TINTIN_DVS91'
p709
g11
sS'IN_TIME_DVS574'
p710
g9
sS'THE_DESCENDANTS_DVS129'
p711
g2
sS'INSIDE_MAN_DVS318'
p712
g7
sS'IN_TIME_DVS778'
p713
g11
sS'CINDERELLA_MAN_DVS450'
p714
g7
sS'CINDERELLA_MAN_DVS456'
p715
g17
sS'MORNING_GLORY_DVS210'
p716
g11
sS'MORNING_GLORY_DVS216'
p717
g11
sS'MORNING_GLORY_DVS215'
p718
g11
sS'THE_GIRL_WITH_THE_DRAGON_TATTOO_DVS776'
p719
g27
sS'HUGO_DVS736'
p720
g2
sS'HUGO_DVS737'
p721
g27
sS'IN_TIME_DVS372'
p722
g34
sS'FRIENDS_WITH_BENEFITS_DVS177'
p723
g7
sS'ZOMBIELAND_DVS467'
p724
g17
sS'BLINDDATING_DVS79'
p725
g11
sS'FRIENDS_WITH_BENEFITS_DVS178'
p726
g7
sS'HANSEL_GRETEL_WITCH_HUNTERS_DVS440'
p727
g2
sS'PUBLIC_ENEMIES_DVS28'
p728
g9
sS'CHASING_MAVERICKS_DVS1073'
p729
g27
sS'FRIENDS_WITH_BENEFITS_DVS26'
p730
g11
sS'TITANIC_2_DVS461'
p731
g9
sS'SALT_DVS81'
p732
g7
sS'EASY_A_DVS263'
p733
g11
sS'THE_WATCH_DVS543'
p734
g11
sS'XMEN_FIRST_CLASS_DVS567'
p735
g27
sS'21_JUMP_STREET_DVS454'
p736
g9
sS'PERCY_JACKSON_LIGHTENING_THIEF_DVS338'
p737
g2
sS'MR_POPPERS_PENGUINS_DVS434'
p738
g258
sS'COLOMBIANA_DVS176'
p739
g478
sS'SORCERERS_APPRENTICE_DVS169'
p740
g11
sS'GHOST_RIDER_SPIRIT_OF_VENGEANCE_DVS333'
p741
g2
sS'COLOMBIANA_DVS171'
p742
g11
sS'BATTLE_LOS_ANGELES_DVS325'
p743
g2
sS'SORCERERS_APPRENTICE_DVS162'
p744
g17
sS'SORCERERS_APPRENTICE_DVS163'
p745
g7
sS'SUPER_8_DVS581'
p746
g11
sS'GREEN_ZONE_DVS18'
p747
g11
sS'JACK_AND_JILL_DVS322'
p748
g7
sS'THE_BOUNTY_HUNTER_DVS563'
p749
g9
sS'NO_STRINGS_ATTACHED_DVS97'
p750
g27
sS'IDES_OF_MARCH_DVS284'
p751
g2
sS'BATTLE_LOS_ANGELES_DVS328'
p752
g11
sS'ROBIN_HOOD_DVS202'
p753
g9
sS'ZOOKEEPER_DVS427'
p754
g9
sS'KARATE_KID_DVS351'
p755
g9
sS'ABRAHAM_LINCOLN_VAMPIRE_HUNTER_DVS640'
p756
g51
sS'XMEN_FIRST_CLASS_DVS1261'
p757
g11
sS'21_JUMP_STREET_DVS182'
p758
g11
sS'CAPTAIN_AMERICA_DVS558'
p759
g224
sS'CAPTAIN_AMERICA_DVS557'
p760
g224
sS'CAPTAIN_AMERICA_DVS556'
p761
g11
sS'THE_ROOMMATE_DVS98'
p762
g258
sS'ZOMBIELAND_DVS312'
p763
g7
sS'JACK_AND_JILL_DVS436'
p764
g17
sS'JACK_AND_JILL_DVS434'
p765
g41
sS'PARENTAL_GUIDANCE_DVS84'
p766
g11
sS'EASY_A_DVS23'
p767
g9
sS'PERCY_JACKSON_LIGHTENING_THIEF_DVS258'
p768
g11
sS'JACK_AND_JILL_DVS184'
p769
g11
sS'WHATS_YOUR_NUMBER_DVS750'
p770
g11
sS'RUBY_SPARKS_DVS451'
p771
g9
sS'CHASING_MAVERICKS_DVS335'
p772
g51
sS'CHASING_MAVERICKS_DVS331'
p773
g258
sS'KATY_PERRY_PART_OF_ME_DVS192'
p774
g2
sS'IN_TIME_DVS908'
p775
g11
sS'SOUL_SURFER_DVS226'
p776
g41
sS'JULIE_AND_JULIA_DVS316'
p777
g7
sS'THE_ROOMMATE_DVS400'
p778
g9
sS'THE_WATCH_DVS35'
p779
g11
sS'SNOW_FLOWER_FD_DVS495'
p780
g9
sS'BAD_TEACHER_DVS98'
p781
g27
sS'CAPTAIN_AMERICA_DVS554'
p782
g11
sS'WHATS_YOUR_NUMBER_DVS354'
p783
g17
sS'TITANIC_1_DVS556'
p784
g9
sS'CAPTAIN_AMERICA_DVS498'
p785
g2
sS'BURLESQUE_DVS360'
p786
g2
sS'COLOMBIANA_DVS314'
p787
g17
sS'CHARLIE_ST_CLOUD_DVS352'
p788
g9
sS'KARATE_KID_DVS1159'
p789
g2
sS'NANNY_MCPHEE_RETURNS_DVS147'
p790
g9
sS'NANNY_MCPHEE_RETURNS_DVS493'
p791
g51
sS'IRON_MAN_2_DVS546'
p792
g11
sS'UGLY_TRUTH_DVS355'
p793
g17
sS'30_MINUTES_OR_LESS_DVS251'
p794
g11
sS'WE_BOUGHT_A_ZOO_DVS420'
p795
g17
sS'THOR_DVS82'
p796
g11
sS'TITANIC_1_DVS342'
p797
g11
sS'CHASING_MAVERICKS_DVS428'
p798
g2
sS'THE_ADVENTURES_OF_TINTIN_DVS489'
p799
g34
sS'SUPER_8_DVS94'
p800
g11
sS'HOW_DO_YOU_KNOW_DVS295'
p801
g11
sS'JULIE_AND_JULIA_DVS605'
p802
g9
sS'THE_ADVENTURES_OF_TINTIN_DVS480'
p803
g11
sS'THE_ADVENTURES_OF_TINTIN_DVS487'
p804
g62
sS'WE_BOUGHT_A_ZOO_DVS37'
p805
g41
sS'COLOMBIANA_DVS733'
p806
g9
sS'ZOMBIELAND_DVS646'
p807
g11
sS'FLIGHT_DVS81'
p808
g2
sS'PROMETHEUS_DVS933'
p809
g51
sS'PROMETHEUS_DVS932'
p810
g11
sS'TITANIC_1_DVS127'
p811
g11
sS'GROWN_UPS_DVS15'
p812
g11
sS'XMEN_FIRST_CLASS_DVS1137'
p813
g2
sS'SPARKLE_2012_DVS526'
p814
g7
sS'SPARKLE_2012_DVS521'
p815
g41
sS'THE_ADVENTURES_OF_TINTIN_DVS155'
p816
g11
sS'30_MINUTES_OR_LESS_DVS100'
p817
g51
sS'GHOST_RIDER_SPIRIT_OF_VENGEANCE_DVS17'
p818
g51
sS'UGLY_TRUTH_DVS623'
p819
g27
sS'SUPER_8_DVS213'
p820
g62
sS'500DAYSOFSUMMER_DVS120'
p821
g15
sS'500DAYSOFSUMMER_DVS433'
p822
g15
sS'THE_GUILT_TRIP_DVS281'
p823
g11
sS'21_JUMP_STREET_DVS61'
p824
g228
sS'PUBLIC_ENEMIES_DVS568'
p825
g11
sS'THE_GUILT_TRIP_DVS159'
p826
g17
sS'THE_ART_OF_GETTING_BY_DVS263'
p827
g9
sS'TOOTH_FAIRY_DVS300'
p828
g27
sS'MORNING_GLORY_DVS55'
p829
g11
sS'MR_POPPERS_PENGUINS_DVS642'
p830
g51
sS'40_YEAR_OLD_VIRGIN_DVS218'
p831
g11
sS'THOR_DVS364'
p832
g11
sS'THINK_LIKE_A_MAN_DVS326'
p833
g11
sS'NO_STRINGS_ATTACHED_DVS100'
p834
g11
sS'BRUNO_DVS109'
p835
g9
sS'THE_GIRL_WITH_THE_DRAGON_TATTOO_DVS347'
p836
g51
sS'A_GOOD_DAY_TO_DIE_HARD_DVS559'
p837
g15
sS'MR_POPPERS_PENGUINS_DVS609'
p838
g17
sS'PARENTAL_GUIDANCE_DVS383'
p839
g9
sS'CHASING_MAVERICKS_DVS859'
p840
g258
sS'INSIDE_MAN_DVS257'
p841
g27
sS'HANSEL_GRETEL_WITCH_HUNTERS_DVS272'
p842
g27
sS'MR_POPPERS_PENGUINS_DVS114'
p843
g34
sS'TITANIC_2_DVS672'
p844
g11
sS'MR_POPPERS_PENGUINS_DVS111'
p845
g34
sS'BURLESQUE_DVS429'
p846
g2
sS'HUGO_DVS705'
p847
g9
sS'IN_TIME_DVS909'
p848
g9
sS'WHATS_YOUR_NUMBER_DVS576'
p849
g9
sS'MR_POPPERS_PENGUINS_DVS281'
p850
g41
sS'CINDERELLA_MAN_DVS481'
p851
g17
sS'BLINDDATING_DVS86'
p852
g46
sS'THE_CALL_DVS671'
p853
g7
sS'PUBLIC_ENEMIES_DVS31'
p854
g11
sS'THOR_DVS151'
p855
g62
sS'THINK_LIKE_A_MAN_DVS259'
p856
g7
sS'THE_DESCENDANTS_DVS448'
p857
g9
sS'BURLESQUE_DVS85'
p858
g17
sS'THE_BIG_YEAR_DVS203'
p859
g9
sS'YOUNG_ADULT_DVS49'
p860
g9
sS'HUGO_DVS148'
p861
g9
sS'CHRONICLE_DVS27'
p862
g7
sS'HUGO_DVS143'
p863
g11
sS'CHARLIE_ST_CLOUD_DVS136'
p864
g9
sS'21_JUMP_STREET_DVS462'
p865
g11
sS'21_JUMP_STREET_DVS464'
p866
g11
sS'GHOST_RIDER_SPIRIT_OF_VENGEANCE_DVS308'
p867
g9
sS'BATTLE_LOS_ANGELES_DVS202'
p868
g7
sS'JACK_AND_JILL_DVS118'
p869
g7
sS'A_THOUSAND_WORDS_DVS19'
p870
g7
sS'ZOOKEEPER_DVS214'
p871
g2
sS'IN_TIME_DVS176'
p872
g9
sS'CHASING_MAVERICKS_DVS591'
p873
g7
sS'HANSEL_GRETEL_WITCH_HUNTERS_DVS128'
p874
g27
sS'THE_BOUNTY_HUNTER_DVS352'
p875
g62
sS'ZOMBIELAND_DVS529'
p876
g17
sS'LARRY_CROWNE_DVS13'
p877
g27
sS'CAPTAIN_AMERICA_DVS308'
p878
g11
sS'JACK_AND_JILL_DVS332'
p879
g51
sS'JACK_AND_JILL_DVS192'
p880
g7
sS'GREEN_ZONE_DVS412'
p881
g11
sS'LIFE_OF_PI_DVS338'
p882
g7
sS'ZOMBIELAND_DVS639'
p883
g7
sS'LIFE_OF_PI_DVS423'
p884
g62
sS'LIFE_OF_PI_DVS426'
p885
g11
sS'JACK_AND_JILL_DVS425'
p886
g41
sS'EASY_A_DVS38'
p887
g11
sS'CHRONICLE_DVS133'
p888
g17
sS'WHATS_YOUR_NUMBER_DVS722'
p889
g11
sS'PERCY_JACKSON_LIGHTENING_THIEF_DVS135'
p890
g11
sS'PERCY_JACKSON_LIGHTENING_THIEF_DVS137'
p891
g2
sS'TITANIC_1_DVS309'
p892
g11
sS'THE_ROOMMATE_DVS375'
p893
g2
sS'GHOST_RIDER_SPIRIT_OF_VENGEANCE_DVS277'
p894
g9
sS'SALT_DVS282'
p895
g11
sS'IN_TIME_DVS916'
p896
g9
sS'ROBIN_HOOD_DVS22'
p897
g11
sS'IN_TIME_DVS57'
p898
g27
sS'LIFE_OF_PI_DVS374'
p899
g7
sS'ITS_COMPLICATED_DVS267'
p900
g9
sS'CHASING_MAVERICKS_DVS184'
p901
g11
sS'WHATS_YOUR_NUMBER_DVS435'
p902
g17
sS'NANNY_MCPHEE_RETURNS_DVS480'
p903
g11
sS'COLOMBIANA_DVS976'
p904
g2
sS'IRON_MAN_2_DVS537'
p905
g11
sS'IRON_MAN_2_DVS536'
p906
g11
sS'MORNING_GLORY_DVS490'
p907
g7
sS'FLIGHT_DVS511'
p908
g27
sS'A_THOUSAND_WORDS_DVS386'
p909
g2
sS'IRON_MAN_2_DVS624'
p910
g9
sS'CHASING_MAVERICKS_DVS454'
p911
g34
sS'TITANIC_1_DVS332'
p912
g41
sS'BURLESQUE_DVS229'
p913
g27
sS'KATY_PERRY_PART_OF_ME_DVS234'
p914
g7
sS'TITANIC_1_DVS338'
p915
g11
sS'BIG_MOMMAS_LIKE_FATHER_LIKE_SON_DVS415'
p916
g9
sS'COLOMBIANA_DVS438'
p917
g11
sS'UGLY_TRUTH_DVS384'
p918
g9
sS'SUPER_8_DVS353'
p919
g11
sS'CHASING_MAVERICKS_DVS534'
p920
g17
sS'SNOW_FLOWER_FD_DVS683'
p921
g41
sS'IRON_MAN_2_DVS441'
p922
g2
sS'THE_SITTER_DVS131'
p923
g17
sS'TITANIC_1_DVS248'
p924
g11
sS'TITANIC_1_DVS249'
p925
g11
sS'RUBY_SPARKS_DVS136'
p926
g11
sS'RUBY_SPARKS_DVS130'
p927
g34
sS'NANNY_MCPHEE_RETURNS_DVS153'
p928
g9
sS'CHRONICLE_DVS147'
p929
g27
sS'TITANIC_1_DVS247'
p930
g11
sS'ABRAHAM_LINCOLN_VAMPIRE_HUNTER_DVS423'
p931
g7
sS'GROWN_UPS_DVS68'
p932
g11
sS'WE_BOUGHT_A_ZOO_DVS679'
p933
g34
sS'COLOMBIANA_DVS886'
p934
g258
sS'THE_VOW_DVS480'
p935
g11
sS'THE_ADVENTURES_OF_TINTIN_DVS143'
p936
g11
sS'THE_ADVENTURES_OF_TINTIN_DVS144'
p937
g11
sS'LITTLE_FOCKERS_DVS241'
p938
g2
sS'THE_ADVENTURES_OF_TINTIN_DVS148'
p939
g11
sS'30_MINUTES_OR_LESS_DVS116'
p940
g228
sS'BATTLE_LOS_ANGELES_DVS542'
p941
g27
sS'TITANIC_1_DVS460'
p942
g34
sS'TITANIC_1_DVS461'
p943
g258
sS'THE_BIG_YEAR_DVS148'
p944
g11
sS'EASY_A_DVS193'
p945
g17
sS'THE_VOW_DVS700'
p946
g17
sS'SANCTUM_DVS22'
p947
g34
sS'21_JUMP_STREET_DVS73'
p948
g11
sS'SPARKLE_2012_DVS461'
p949
g17
sS'THE_BIG_YEAR_DVS569'
p950
g9
sS'HOW_DO_YOU_KNOW_DVS311'
p951
g17
sS'HUGO_DVS626'
p952
g2
sS'HUGO_DVS627'
p953
g7
sS'HUGO_DVS623'
p954
g17
sS'THOR_DVS372'
p955
g11
sS'TOOTH_FAIRY_DVS120'
p956
g27
sS'THE_ADVENTURES_OF_TINTIN_DVS42'
p957
g9
sS'TOOTH_FAIRY_DVS122'
p958
g2
sS'THE_ADVENTURES_OF_TINTIN_DVS49'
p959
g11
sS'HUGO_DVS393'
p960
g27
sS'A_GOOD_DAY_TO_DIE_HARD_DVS529'
p961
g51
sS'MR_POPPERS_PENGUINS_DVS632'
p962
g11
sS'21_JUMP_STREET_DVS681'
p963
g41
sS'A_GOOD_DAY_TO_DIE_HARD_DVS527'
p964
g11
sS'BURLESQUE_DVS439'
p965
g41
sS'40_YEAR_OLD_VIRGIN_DVS228'
p966
g11
sS'TITANIC_2_DVS663'
p967
g11
sS'TITANIC_2_DVS662'
p968
g11
sS'HUGO_DVS711'
p969
g11
sS'TITANIC_2_DVS665'
p970
g11
sS'MORNING_GLORY_DVS232'
p971
g17
sS'MORNING_GLORY_DVS234'
p972
g17
sS'THE_VOW_DVS155'
p973
g9
sS'SUPER_8_DVS27'
p974
g11
sS'DISTRICT_9_DVS505'
p975
g9
sS'CINDERELLA_MAN_DVS493'
p976
g7
sS'CINDERELLA_MAN_DVS491'
p977
g9
sS'IN_TIME_DVS136'
p978
g9
sS'ZOMBIELAND_DVS408'
p979
g11
sS'WE_BOUGHT_A_ZOO_DVS66'
p980
g2
sS'FRIENDS_WITH_BENEFITS_DVS159'
p981
g62
sS'MR_POPPERS_PENGUINS_DVS701'
p982
g11
sS'FRIENDS_WITH_BENEFITS_DVS151'
p983
g41
sS'TITANIC_2_DVS405'
p984
g9
sS'THOR_DVS168'
p985
g11
sS'BURLESQUE_DVS97'
p986
g27
sS'TOOTH_FAIRY_DVS582'
p987
g11
sS'HUGO_DVS405'
p988
g41
sS'JUST_GO_WITH_IT_DVS238'
p989
g7
sS'CHARLIE_ST_CLOUD_DVS126'
p990
g224
sS'CHARLIE_ST_CLOUD_DVS125'
p991
g11
sS'A_GOOD_DAY_TO_DIE_HARD_DVS458'
p992
g17
sS'JUST_GO_WITH_IT_DVS236'
p993
g17
sS'GHOST_RIDER_SPIRIT_OF_VENGEANCE_DVS485'
p994
g258
sS'IN_TIME_DVS627'
p995
g9
sS'COLOMBIANA_DVS159'
p996
g478
sS'SORCERERS_APPRENTICE_DVS416'
p997
g9
sS'IN_TIME_DVS620'
p998
g27
sS'COLOMBIANA_DVS150'
p999
g62
sS'MORNING_GLORY_DVS163'
p1000
g11
sS'ZOOKEEPER_DVS229'
p1001
g62
sS'HANSEL_GRETEL_WITCH_HUNTERS_DVS135'
p1002
g11
sS'BAD_TEACHER_DVS162'
p1003
g7
sS'HANSEL_GRETEL_WITCH_HUNTERS_DVS138'
p1004
g11
sS'CAPTAIN_AMERICA_DVS313'
p1005
g224
sS'CAPTAIN_AMERICA_DVS312'
p1006
g11
sS'HANSEL_GRETEL_WITCH_HUNTERS_DVS484'
p1007
g11
sS'A_THOUSAND_WORDS_DVS28'
p1008
g15
sS'THE_GIRL_WITH_THE_DRAGON_TATTOO_DVS1398'
p1009
g9
sS'NO_STRINGS_ATTACHED_DVS344'
p1010
g17
sS'ROBIN_HOOD_DVS266'
p1011
g9
sS'THE_GIRL_WITH_THE_DRAGON_TATTOO_DVS1397'
p1012
g9
sS'GREEN_ZONE_DVS465'
p1013
g9
sS'WHATS_YOUR_NUMBER_DVS606'
p1014
g11
sS'CAPTAIN_AMERICA_DVS535'
p1015
g11
sS'LIFE_OF_PI_DVS438'
p1016
g41
sS'ZOMBIELAND_DVS627'
p1017
g11
sS'THOR_DVS589'
p1018
g11
sS'ZOMBIELAND_DVS366'
p1019
g11
sS'JACK_AND_JILL_DVS450'
p1020
g62
sS'ZOMBIELAND_DVS335'
p1021
g9
sS'ITS_COMPLICATED_DVS311'
p1022
g17
sS'XMEN_FIRST_CLASS_DVS434'
p1023
g62
sS'CAPTAIN_AMERICA_DVS76'
p1024
g7
sS'CAPTAIN_AMERICA_DVS78'
p1025
g2
sS'WHATS_YOUR_NUMBER_DVS738'
p1026
g2
sS'IN_TIME_DVS924'
p1027
g17
sS'BRUNO_DVS83'
p1028
g27
sS'IN_TIME_DVS922'
p1029
g11
sS'SNOW_FLOWER_FD_DVS273'
p1030
g258
sS'FLIGHT_DVS213'
p1031
g9
sS'SANCTUM_DVS428'
p1032
g2
sS'LIFE_OF_PI_DVS321'
p1033
g62
sS'ZOMBIELAND_DVS750'
p1034
g9
sS'ZOMBIELAND_DVS751'
p1035
g2
sS'CHASING_MAVERICKS_DVS192'
p1036
g62
sS'LIFE_OF_PI_DVS694'
p1037
g62
sS'SORCERERS_APPRENTICE_DVS47'
p1038
g258
sS'ITS_COMPLICATED_DVS275'
p1039
g17
sS'ITS_COMPLICATED_DVS274'
p1040
g7
sS'ITS_COMPLICATED_DVS273'
p1041
g9
sS'ABRAHAM_LINCOLN_VAMPIRE_HUNTER_DVS584'
p1042
g62
sS'WHATS_YOUR_NUMBER_DVS421'
p1043
g7
sS'THE_ADVENTURES_OF_TINTIN_DVS556'
p1044
g11
sS'JACK_AND_JILL_DVS31'
p1045
g11
sS'THIS_MEANS_WAR_DVS384'
p1046
g7
sS'KARATE_KID_DVS422'
p1047
g9
sS'SALT_DVS341'
p1048
g41
sS'NO_STRINGS_ATTACHED_DVS55'
p1049
g11
sS'JULIE_AND_JULIA_DVS52'
p1050
g9
sS'KATY_PERRY_PART_OF_ME_DVS228'
p1051
g11
sS'TITANIC_1_DVS324'
p1052
g11
sS'BURLESQUE_DVS236'
p1053
g27
sS'COLOMBIANA_DVS420'
p1054
g2
sS'COLOMBIANA_DVS423'
p1055
g27
sS'CHARLIE_ST_CLOUD_DVS241'
p1056
g11
sS'KARATE_KID_DVS1043'
p1057
g9
sS'SUPER_8_DVS343'
p1058
g9
sS'MR_POPPERS_PENGUINS_DVS30'
p1059
g17
sS'KARATE_KID_DVS1047'
p1060
g2
sS'MR_POPPERS_PENGUINS_DVS174'
p1061
g11
sS'RUBY_SPARKS_DVS216'
p1062
g11
sS'TITANIC_1_DVS259'
p1063
g11
sS'TITANIC_1_DVS251'
p1064
g11
sS'TITANIC_1_DVS250'
p1065
g11
sS'KATY_PERRY_PART_OF_ME_DVS319'
p1066
g9
sS'TITANIC_1_DVS256'
p1067
g11
sS'GREEN_ZONE_DVS115'
p1068
g17
sS'TOOTH_FAIRY_DVS875'
p1069
g62
sS'TOOTH_FAIRY_DVS874'
p1070
g9
sS'JULIE_AND_JULIA_DVS240'
p1071
g7
sS'DEATH_AT_A_FUNERAL_DVS234'
p1072
g2
sS'GHOST_RIDER_SPIRIT_OF_VENGEANCE_DVS31'
p1073
g258
sS'DEATH_AT_A_FUNERAL_DVS237'
p1074
g41
sS'FLIGHT_DVS187'
p1075
g9
sS'RUBY_SPARKS_DVS672'
p1076
g11
sS'RUBY_SPARKS_DVS671'
p1077
g11
sS'GROWN_UPS_DVS142'
p1078
g41
sS'TITANIC_1_DVS475'
p1079
g34
sS'THE_BIG_YEAR_DVS171'
p1080
g11
sS'THE_BIG_YEAR_DVS174'
p1081
g11
sS'THE_BIG_YEAR_DVS176'
p1082
g7
sS'THE_VOW_DVS361'
p1083
g258
sS'DEAR_JOHN_DVS181'
p1084
g11
sS'THE_VOW_DVS366'
p1085
g51
sS'PUBLIC_ENEMIES_DVS618'
p1086
g9
sS'PUBLIC_ENEMIES_DVS619'
p1087
g9
sS'THE_DESCENDANTS_DVS90'
p1088
g9
sS'THE_DESCENDANTS_DVS91'
p1089
g11
sS'500DAYSOFSUMMER_DVS102'
p1090
g9
sS'SPARKLE_2012_DVS476'
p1091
g27
sS'21_JUMP_STREET_DVS88'
p1092
g15
sS'CHASING_MAVERICKS_DVS610'
p1093
g9
sS'COLOMBIANA_DVS632'
p1094
g9
sS'ZOMBIELAND_DVS669'
p1095
g51
sS'THE_CALL_DVS508'
p1096
g11
sS'EASY_A_DVS233'
p1097
g2
sS'THOR_DVS428'
p1098
g17
sS'PARENTAL_GUIDANCE_DVS292'
p1099
g51
sS'BATTLE_LOS_ANGELES_DVS485'
p1100
g17
sS'THE_ADVENTURES_OF_TINTIN_DVS53'
p1101
g11
sS'THE_ADVENTURES_OF_TINTIN_DVS52'
p1102
g2
sS'THINK_LIKE_A_MAN_DVS309'
p1103
g51
sS'FLIGHT_DVS66'
p1104
g11
sS'HUGO_DVS361'
p1105
g9
sS'SPARKLE_2012_DVS293'
p1106
g9
sS'THE_BOUNTY_HUNTER_DVS110'
p1107
g7
sS'IN_TIME_DVS725'
p1108
g2
sS'DEAR_JOHN_DVS411'
p1109
g9
sS'TITANIC_2_DVS658'
p1110
g11
sS'HUGO_DVS766'
p1111
g51
sS'WHATS_YOUR_NUMBER_DVS734'
p1112
g7
sS'THE_BIG_YEAR_DVS190'
p1113
g17
sS'THE_BIG_YEAR_DVS197'
p1114
g27
sS'THE_VOW_DVS638'
p1115
g258
sS'HUGO_DVS505'
p1116
g34
sS'THE_ART_OF_GETTING_BY_DVS292'
p1117
g11
sS'ZOMBIELAND_DVS437'
p1118
g7
sS'THE_ART_OF_GETTING_BY_DVS298'
p1119
g2
sS'KARATE_KID_DVS186'
p1120
g17
sS'IN_TIME_DVS380'
p1121
g34
sS'IN_TIME_DVS383'
p1122
g34
sS'COLOMBIANA_DVS1080'
p1123
g9
sS'THINK_LIKE_A_MAN_DVS472'
p1124
g9
sS'THE_DESCENDANTS_DVS460'
p1125
g11
sS'MR_POPPERS_PENGUINS_DVS625'
p1126
g27
sS'MR_POPPERS_PENGUINS_DVS624'
p1127
g27
sS'JUST_GO_WITH_IT_DVS145'
p1128
g11
sS'THE_BIG_YEAR_DVS226'
p1129
g51
sS'SALT_DVS403'
p1130
g11
sS'CHASING_MAVERICKS_DVS1027'
p1131
g9
sS'CHRONICLE_DVS43'
p1132
g27
sS'FRIENDS_WITH_BENEFITS_DVS73'
p1133
g11
sS'SORCERERS_APPRENTICE_DVS310'
p1134
g11
sS'FRIENDS_WITH_BENEFITS_DVS234'
p1135
g7
sS'XMEN_FIRST_CLASS_DVS530'
p1136
g2
sS'IN_TIME_DVS652'
p1137
g2
sS'HUGO_DVS183'
p1138
g9
sS'HUGO_DVS180'
p1139
g2
sS'YOUNG_ADULT_DVS274'
p1140
g7
sS'LIFE_OF_PI_DVS153'
p1141
g9
sS'THE_GIRL_WITH_THE_DRAGON_TATTOO_DVS1259'
p1142
g17
sS'KARATE_KID_DVS878'
p1143
g2
sS'TOOTH_FAIRY_DVS486'
p1144
g9
sS'30_MINUTES_OR_LESS_DVS21'
p1145
S'annotated'
p1146
sS'PARENTAL_GUIDANCE_DVS349'
p1147
g17
sS'SANCTUM_DVS30'
p1148
g17
sS'CAPTAIN_AMERICA_DVS324'
p1149
g11
sS'ITS_COMPLICATED_DVS413'
p1150
g17
sS'LARRY_CROWNE_DVS39'
p1151
g27
sS'DISTRICT_9_DVS401'
p1152
g27
sS'THE_SITTER_DVS19'
p1153
g27
sS'YOUNG_ADULT_DVS388'
p1154
g9
sS'IDES_OF_MARCH_DVS256'
p1155
g9
sS'LIFE_OF_PI_DVS597'
p1156
g34
sS'ZOMBIELAND_DVS291'
p1157
g7
sS'PROMETHEUS_DVS1024'
p1158
g51
sS'THOR_DVS594'
p1159
g9
sS'BURLESQUE_DVS333'
p1160
g2
sS'A_THOUSAND_WORDS_DVS438'
p1161
g41
sS'SORCERERS_APPRENTICE_DVS87'
p1162
g17
sS'THE_GUILT_TRIP_DVS283'
p1163
g41
sS'WHATS_YOUR_NUMBER_DVS258'
p1164
g9
sS'LIFE_OF_PI_DVS774'
p1165
g9
sS'SNOW_FLOWER_FD_DVS204'
p1166
g11
sS'IN_TIME_DVS935'
p1167
g9
sS'IN_TIME_DVS934'
p1168
g17
sS'WHATS_YOUR_NUMBER_DVS702'
p1169
g11
sS'XMEN_FIRST_CLASS_DVS944'
p1170
g9
sS'KATY_PERRY_PART_OF_ME_DVS32'
p1171
g7
sS'WHATS_YOUR_NUMBER_DVS707'
p1172
g11
sS'LIFE_OF_PI_DVS778'
p1173
g27
sS'CAPTAIN_AMERICA_DVS506'
p1174
g9
sS'COLOMBIANA_DVS182'
p1175
g62
sS'IN_TIME_DVS75'
p1176
g2
sS'21_JUMP_STREET_DVS225'
p1177
g11
sS'WE_BOUGHT_A_ZOO_DVS275'
p1178
g17
sS'LIFE_OF_PI_DVS178'
p1179
g11
sS'LAND_OF_THE_LOST_DVS69'
p1180
g9
sS'THE_WATCH_DVS388'
p1181
g11
sS'KARATE_KID_DVS899'
p1182
g2
sS'THE_WATCH_DVS380'
p1183
g2
sS'UGLY_TRUTH_DVS257'
p1184
g11
sS'BIG_MOMMAS_LIKE_FATHER_LIKE_SON_DVS470'
p1185
g27
sS'FLIGHT_DVS530'
p1186
g41
sS'21_JUMP_STREET_DVS135'
p1187
g11
sS'TITANIC_1_DVS318'
p1188
g2
sS'BURLESQUE_DVS202'
p1189
g2
sS'TITANIC_1_DVS310'
p1190
g11
sS'TITANIC_1_DVS317'
p1191
g62
sS'WE_BOUGHT_A_ZOO_DVS454'
p1192
g9
sS'SUPER_8_DVS579'
p1193
g11
sS'IRON_MAN_2_DVS514'
p1194
g11
sS'WE_BOUGHT_A_ZOO_DVS507'
p1195
g9
sS'RUBY_SPARKS_DVS115'
p1196
g11
sS'JULIE_AND_JULIA_DVS60'
p1197
g9
sS'TITANIC_1_DVS263'
p1198
g11
sS'RUBY_SPARKS_DVS447'
p1199
g7
sS'A_THOUSAND_WORDS_DVS299'
p1200
g11
sS'PROMETHEUS_DVS901'
p1201
g11
sS'MR_POPPERS_PENGUINS_DVS546'
p1202
g9
sS'30_MINUTES_OR_LESS_DVS138'
p1203
g228
sS'CHASING_MAVERICKS_DVS602'
p1204
g62
sS'TITANIC_1_DVS446'
p1205
g11
sS'KARATE_KID_DVS1580'
p1206
g62
sS'THE_CALL_DVS1108'
p1207
g27
sS'THE_ADVENTURES_OF_TINTIN_DVS164'
p1208
g51
sS'PUBLIC_ENEMIES_DVS338'
p1209
g9
sS'SUPER_8_DVS487'
p1210
g11
sS'SUPER_8_DVS485'
p1211
g2
sS'SUPER_8_DVS488'
p1212
g51
sS'COLOMBIANA_DVS628'
p1213
g2
sS'GHOST_RIDER_SPIRIT_OF_VENGEANCE_DVS20'
p1214
g27
sS'GHOST_RIDER_SPIRIT_OF_VENGEANCE_DVS22'
p1215
g11
sS'21_JUMP_STREET_DVS96'
p1216
g27
sS'COLOMBIANA_DVS627'
p1217
g34
sS'COLOMBIANA_DVS625'
p1218
g34
sS'KARATE_KID_DVS1472'
p1219
g27
sS'THINK_LIKE_A_MAN_DVS486'
p1220
g7
sS'HUGO_DVS632'
p1221
g51
sS'INSIDE_MAN_DVS54'
p1222
g27
sS'INSIDE_MAN_DVS55'
p1223
g2
sS'CINDERELLA_MAN_DVS382'
p1224
g7
sS'SUPER_8_DVS620'
p1225
g41
sS'SUPER_8_DVS153'
p1226
g11
sS'BATTLE_LOS_ANGELES_DVS31'
p1227
g17
sS'DEAR_JOHN_DVS598'
p1228
g9
sS'THE_GIRL_WITH_THE_DRAGON_TATTOO_DVS601'
p1229
g17
sS'SUPER_8_DVS393'
p1230
g9
sS'A_THOUSAND_WORDS_DVS246'
p1231
g9
sS'INSIDE_MAN_DVS429'
p1232
g27
sS'KARATE_KID_DVS597'
p1233
g62
sS'IN_TIME_DVS738'
p1234
g11
sS'HUGO_DVS375'
p1235
g9
sS'IN_TIME_DVS731'
p1236
g11
sS'IN_TIME_DVS730'
p1237
g62
sS'THE_ADVENTURES_OF_TINTIN_DVS88'
p1238
g11
sS'THIS_MEANS_WAR_DVS98'
p1239
g9
sS'SOUL_SURFER_DVS51'
p1240
g11
sS'COLOMBIANA_DVS848'
p1241
g7
sS'HUGO_DVS777'
p1242
g9
sS'HUGO_DVS69'
p1243
g11
sS'JULIE_AND_JULIA_DVS500'
p1244
g41
sS'CINDERELLA_MAN_DVS264'
p1245
g11
sS'ZOMBIELAND_DVS425'
p1246
g51
sS'HANSEL_GRETEL_WITCH_HUNTERS_DVS59'
p1247
g11
sS'IN_TIME_DVS394'
p1248
g9
sS'HANSEL_GRETEL_WITCH_HUNTERS_DVS244'
p1249
g11
sS'TOOTH_FAIRY_DVS833'
p1250
g41
sS'THE_ART_OF_GETTING_BY_DVS197'
p1251
g9
sS'A_GOOD_DAY_TO_DIE_HARD_DVS290'
p1252
g7
sS'MR_POPPERS_PENGUINS_DVS653'
p1253
g11
sS'THE_BIG_YEAR_DVS238'
p1254
g11
sS'TITANIC_2_DVS421'
p1255
g9
sS'THE_CALL_DVS797'
p1256
g11
sS'HUGO_DVS792'
p1257
g17
sS'FRIENDS_WITH_BENEFITS_DVS225'
p1258
g41
sS'THE_DESCENDANTS_DVS491'
p1259
g9
sS'HUGO_DVS199'
p1260
g9
sS'NO_STRINGS_ATTACHED_DVS214'
p1261
g11
sS'NO_STRINGS_ATTACHED_DVS216'
p1262
g11
sS'21_JUMP_STREET_DVS418'
p1263
g51
sS'HUGO_DVS193'
p1264
g11
sS'SORCERERS_APPRENTICE_DVS128'
p1265
g62
sS'BAD_TEACHER_DVS188'
p1266
g27
sS'HANSEL_GRETEL_WITCH_HUNTERS_DVS117'
p1267
g11
sS'30_MINUTES_OR_LESS_DVS55'
p1268
g17
sS'CAPTAIN_AMERICA_DVS338'
p1269
g11
sS'COLOMBIANA_DVS165'
p1270
g11
sS'PERCY_JACKSON_LIGHTENING_THIEF_DVS379'
p1271
g27
sS'XMEN_FIRST_CLASS_DVS413'
p1272
g11
sS'ROBIN_HOOD_DVS244'
p1273
g9
sS'GREEN_ZONE_DVS440'
p1274
g27
sS'LIFE_OF_PI_DVS588'
p1275
g2
sS'ZOMBIELAND_DVS191'
p1276
g2
sS'GHOST_RIDER_SPIRIT_OF_VENGEANCE_DVS447'
p1277
g258
sS'GHOST_RIDER_SPIRIT_OF_VENGEANCE_DVS443'
p1278
g51
sS'THE_BOUNTY_HUNTER_DVS256'
p1279
g9
sS'GHOST_RIDER_SPIRIT_OF_VENGEANCE_DVS113'
p1280
g11
sS'CAPTAIN_AMERICA_DVS427'
p1281
g11
sS'ITS_COMPLICATED_DVS331'
p1282
g41
sS'A_GOOD_DAY_TO_DIE_HARD_DVS879'
p1283
g11
sS'ROBIN_HOOD_DVS338'
p1284
g9
sS'CAPTAIN_AMERICA_DVS50'
p1285
g2
sS'ABRAHAM_LINCOLN_VAMPIRE_HUNTER_DVS597'
p1286
g62
sS'ABRAHAM_LINCOLN_VAMPIRE_HUNTER_DVS596'
p1287
g62
sS'TRUE_GRIT_DVS473'
p1288
g27
sS'YOUNG_ADULT_DVS137'
p1289
g9
sS'GHOST_RIDER_SPIRIT_OF_VENGEANCE_DVS284'
p1290
g9
sS'SNOW_FLOWER_FD_DVS218'
p1291
g2
sS'CAPTAIN_AMERICA_DVS604'
p1292
g11
sS'WHATS_YOUR_NUMBER_DVS710'
p1293
g7
sS'GHOST_RIDER_SPIRIT_OF_VENGEANCE_DVS282'
p1294
g9
sS'CAPTAIN_AMERICA_DVS516'
p1295
g2
sS'CAPTAIN_AMERICA_DVS514'
p1296
g2
sS'BAD_TEACHER_DVS310'
p1297
g17
sS'WHATS_YOUR_NUMBER_DVS627'
p1298
g51
sS'KARATE_KID_DVS718'
p1299
g9
sS'THE_DESCENDANTS_DVS523'
p1300
g41
sS'GHOST_RIDER_SPIRIT_OF_VENGEANCE_DVS179'
p1301
g2
sS'LIFE_OF_PI_DVS853'
p1302
g11
sS'A_THOUSAND_WORDS_DVS194'
p1303
g9
sS'LIFE_OF_PI_DVS166'
p1304
g11
sS'LIFE_OF_PI_DVS164'
p1305
g258
sS'SNOW_FLOWER_FD_DVS502'
p1306
g2
sS'BIG_MOMMAS_LIKE_FATHER_LIKE_SON_DVS266'
p1307
S'annotated'
p1308
sS'THE_ADVENTURES_OF_TINTIN_DVS572'
p1309
g11
sS'IRON_MAN_2_DVS291'
p1310
g27
sS'KARATE_KID_DVS882'
p1311
g2
sS'COLOMBIANA_DVS82'
p1312
g258
sS'KARATE_KID_DVS1110'
p1313
g11
sS'THE_ART_OF_GETTING_BY_DVS255'
p1314
g9
sS'THE_WATCH_DVS395'
p1315
g27
sS'FLIGHT_DVS527'
p1316
g41
sS'IRON_MAN_2_DVS298'
p1317
g51
sS'COLOMBIANA_DVS88'
p1318
g41
sS'ABRAHAM_LINCOLN_VAMPIRE_HUNTER_DVS575'
p1319
g2
sS'SALT_DVS363'
p1320
g17
sS'KATY_PERRY_PART_OF_ME_DVS158'
p1321
g41
sS'BURLESQUE_DVS218'
p1322
g11
sS'KARATE_KID_DVS404'
p1323
g7
sS'THE_SOCIAL_NETWORK_DVS84'
p1324
g17
sS'BURLESQUE_DVS211'
p1325
g41
sS'TITANIC_1_DVS304'
p1326
g34
sS'COLOMBIANA_DVS444'
p1327
g62
sS'TITANIC_1_DVS301'
p1328
g34
sS'THE_SITTER_DVS144'
p1329
g27
sS'BLINDDATING_DVS239'
p1330
g27
sS'THE_SITTER_DVS141'
p1331
g51
sS'IRON_MAN_2_DVS180'
p1332
g11
sS'SUPER_8_DVS369'
p1333
g11
sS'XMEN_FIRST_CLASS_DVS1171'
p1334
g11
sS'THE_SOCIAL_NETWORK_DVS68'
p1335
g9
sS'LARRY_CROWNE_DVS188'
p1336
g9
sS'SUPER_8_DVS561'
p1337
g11
sS'THIS_MEANS_WAR_DVS528'
p1338
g51
sS'SUPER_8_DVS569'
p1339
g41
sS'ROBIN_HOOD_DVS320'
p1340
g9
sS'TITANIC_1_DVS271'
p1341
g7
sS'TITANIC_1_DVS270'
p1342
g11
sS'TITANIC_1_DVS275'
p1343
g11
sS'TITANIC_1_DVS274'
p1344
g11
sS'TITANIC_1_DVS277'
p1345
g11
sS'TITANIC_1_DVS276'
p1346
g11
sS'BATTLE_LOS_ANGELES_DVS613'
p1347
g7
sS'FLIGHT_DVS29'
p1348
g11
sS'KARATE_KID_DVS1241'
p1349
g9
sS'THE_CALL_DVS1111'
p1350
g11
sS'GROWN_UPS_DVS166'
p1351
g11
sS'THE_ADVENTURES_OF_TINTIN_DVS199'
p1352
g11
sS'RUBY_SPARKS_DVS305'
p1353
g11
sS'SUPER_8_DVS491'
p1354
g11
sS'PROMETHEUS_DVS809'
p1355
g11
sS'SUPER_8_DVS494'
p1356
g11
sS'PROMETHEUS_DVS804'
p1357
g62
sS'PUBLIC_ENEMIES_DVS320'
p1358
g9
sS'DEAR_JOHN_DVS159'
p1359
g7
sS'THE_ADVENTURES_OF_TINTIN_DVS685'
p1360
g11
sS'SNOW_FLOWER_FD_DVS724'
p1361
g41
sS'SNOW_FLOWER_FD_DVS722'
p1362
g7
sS'THE_WATCH_DVS133'
p1363
g27
sS'COLOMBIANA_DVS610'
p1364
g34
sS'MORNING_GLORY_DVS398'
p1365
g17
sS'INSIDE_MAN_DVS46'
p1366
g7
sS'A_GOOD_DAY_TO_DIE_HARD_DVS727'
p1367
g11
sS'NANNY_MCPHEE_RETURNS_DVS205'
p1368
g34
sS'THE_GIRL_WITH_THE_DRAGON_TATTOO_DVS93'
p1369
g11
sS'LIFE_OF_PI_DVS675'
p1370
g2
sS'DEAR_JOHN_DVS307'
p1371
g11
sS'SUPER_8_DVS381'
p1372
g11
sS'PUBLIC_ENEMIES_DVS259'
p1373
g11
sS'JULIE_AND_JULIA_DVS462'
p1374
g17
sS'HUGO_DVS697'
p1375
g2
sS'THE_BOUNTY_HUNTER_DVS131'
p1376
g11
sS'HUGO_DVS691'
p1377
g11
sS'HUGO_DVS342'
p1378
g2
sS'A_GOOD_DAY_TO_DIE_HARD_DVS512'
p1379
g2
sS'A_GOOD_DAY_TO_DIE_HARD_DVS516'
p1380
g11
sS'THE_DESCENDANTS_DVS643'
p1381
g2
sS'THE_ADVENTURES_OF_TINTIN_DVS98'
p1382
g2
sS'DEAR_JOHN_DVS546'
p1383
g9
sS'SALT_DVS550'
p1384
g9
sS'BATTLE_LOS_ANGELES_DVS596'
p1385
g9
sS'SALT_DVS556'
p1386
g9
sS'GROWN_UPS_DVS182'
p1387
g11
sS'500DAYSOFSUMMER_DVS85'
p1388
g15
sS'500DAYSOFSUMMER_DVS84'
p1389
g17
sS'MORNING_GLORY_DVS388'
p1390
g27
sS'KATY_PERRY_PART_OF_ME_DVS117'
p1391
g27
sS'ITS_COMPLICATED_DVS16'
p1392
g41
sS'TOOTH_FAIRY_DVS623'
p1393
g2
sS'WE_BOUGHT_A_ZOO_DVS31'
p1394
g9
sS'TITANIC_2_DVS749'
p1395
g11
sS'HANSEL_GRETEL_WITCH_HUNTERS_DVS349'
p1396
g2
sS'THE_ART_OF_GETTING_BY_DVS185'
p1397
g9
sS'TITANIC_2_DVS743'
p1398
g9
sS'MORNING_GLORY_DVS378'
p1399
g11
sS'TITANIC_2_DVS745'
p1400
g2
sS'TITANIC_2_DVS747'
p1401
g11
sS'CHRONICLE_DVS66'
p1402
g7
sS'CHASING_MAVERICKS_DVS1005'
p1403
g2
sS'CHRONICLE_DVS65'
p1404
g7
sS'HUGO_DVS236'
p1405
g2
sS'ZOOKEEPER_DVS386'
p1406
g11
sS'21_JUMP_STREET_DVS427'
p1407
g11
sS'YOUNG_ADULT_DVS255'
p1408
g17
sS'A_GOOD_DAY_TO_DIE_HARD_DVS467'
p1409
g2
sS'THOR_DVS602'
p1410
g9
sS'MR_POPPERS_PENGUINS_DVS519'
p1411
g2
sS'40_YEAR_OLD_VIRGIN_DVS57'
p1412
g15
sS'ROBIN_HOOD_DVS507'
p1413
g27
sS'NO_STRINGS_ATTACHED_DVS379'
p1414
g9
sS'BATTLE_LOS_ANGELES_DVS374'
p1415
g17
sS'LIFE_OF_PI_DVS574'
p1416
g27
sS'JACK_AND_JILL_DVS395'
p1417
g9
sS'GHOST_RIDER_SPIRIT_OF_VENGEANCE_DVS438'
p1418
g11
sS'GHOST_RIDER_SPIRIT_OF_VENGEANCE_DVS439'
p1419
g62
sS'SORCERERS_APPRENTICE_DVS111'
p1420
g9
sS'FLIGHT_DVS145'
p1421
g11
sS'LIFE_OF_PI_DVS975'
p1422
g7
sS'A_GOOD_DAY_TO_DIE_HARD_DVS866'
p1423
g11
sS'ZOMBIELAND_DVS368'
p1424
g11
sS'THOR_DVS237'
p1425
g2
sS'ITS_COMPLICATED_DVS329'
p1426
g17
sS'IRON_MAN_2_DVS570'
p1427
g11
sS'DISTRICT_9_DVS267'
p1428
g258
sS'LIFE_OF_PI_DVS978'
p1429
g11
sS'CAPTAIN_AMERICA_DVS46'
p1430
g9
sS'CAPTAIN_AMERICA_DVS40'
p1431
g2
sS'LIFE_OF_PI_DVS482'
p1432
g34
sS'ABRAHAM_LINCOLN_VAMPIRE_HUNTER_DVS218'
p1433
g17
sS'PARENTAL_GUIDANCE_DVS72'
p1434
g11
sS'LIFE_OF_PI_DVS220'
p1435
g27
sS'THE_BIG_YEAR_DVS35'
p1436
g51
sS'30_MINUTES_OR_LESS_DVS210'
p1437
g11
sS'WHATS_YOUR_NUMBER_DVS654'
p1438
g9
sS'JUST_GO_WITH_IT_DVS280'
p1439
g2
sS'JUST_GO_WITH_IT_DVS287'
p1440
g41
sS'LIFE_OF_PI_DVS806'
p1441
g9
sS'PERCY_JACKSON_LIGHTENING_THIEF_DVS171'
p1442
g2
sS'THOR_DVS425'
p1443
g17
sS'JUST_GO_WITH_IT_DVS347'
p1444
g7
sS'CHASING_MAVERICKS_DVS492'
p1445
g258
sS'NANNY_MCPHEE_RETURNS_DVS53'
p1446
g11
sS'CHASING_MAVERICKS_DVS494'
p1447
g9
sS'LIFE_OF_PI_DVS396'
p1448
g62
sS'A_THOUSAND_WORDS_DVS188'
p1449
g15
sS'IDES_OF_MARCH_DVS164'
p1450
g9
sS'CHARLIE_ST_CLOUD_DVS278'
p1451
g11
sS'BIG_MOMMAS_LIKE_FATHER_LIKE_SON_DVS212'
p1452
g11
sS'LIFE_OF_PI_DVS620'
p1453
g9
sS'BIG_MOMMAS_LIKE_FATHER_LIKE_SON_DVS215'
p1454
g11
sS'BIG_MOMMAS_LIKE_FATHER_LIKE_SON_DVS219'
p1455
g2
sS'THE_ROOMMATE_DVS295'
p1456
g11
sS'KARATE_KID_DVS1101'
p1457
g11
sS'KATY_PERRY_PART_OF_ME_DVS160'
p1458
g41
sS'ABRAHAM_LINCOLN_VAMPIRE_HUNTER_DVS565'
p1459
g228
sS'FLIGHT_DVS398'
p1460
g2
sS'KATY_PERRY_PART_OF_ME_DVS168'
p1461
g41
sS'XMEN_FIRST_CLASS_DVS604'
p1462
g11
sS'NO_STRINGS_ATTACHED_DVS553'
p1463
g11
sS'KARATE_KID_DVS474'
p1464
g9
sS'TITANIC_1_DVS92'
p1465
g2
sS'KARATE_KID_DVS472'
p1466
g62
sS'ITS_COMPLICATED_DVS136'
p1467
g9
sS'ITS_COMPLICATED_DVS134'
p1468
g9
sS'BURLESQUE_DVS260'
p1469
g11
sS'BURLESQUE_DVS127'
p1470
g2
sS'TITANIC_1_DVS197'
p1471
g11
sS'TITANIC_1_DVS193'
p1472
g51
sS'XMEN_FIRST_CLASS_DVS849'
p1473
g7
sS'A_THOUSAND_WORDS_DVS362'
p1474
g11
sS'TITANIC_1_DVS199'
p1475
g11
sS'COLOMBIANA_DVS513'
p1476
g2
sS'THE_ADVENTURES_OF_TINTIN_DVS368'
p1477
g51
sS'SUPER_8_DVS552'
p1478
g11
sS'SUPER_8_DVS555'
p1479
g9
sS'SUPER_8_DVS556'
p1480
g11
sS'THIS_MEANS_WAR_DVS511'
p1481
g11
sS'SOUL_SURFER_DVS181'
p1482
g11
sS'KARATE_KID_DVS509'
p1483
g2
sS'XMEN_FIRST_CLASS_DVS920'
p1484
g9
sS'BIG_MOMMAS_LIKE_FATHER_LIKE_SON_DVS528'
p1485
g11
sS'BATTLE_LOS_ANGELES_DVS609'
p1486
g11
sS'GREEN_ZONE_DVS125'
p1487
g11
sS'HOW_DO_YOU_KNOW_DVS680'
p1488
g9
sS'30_MINUTES_OR_LESS_DVS157'
p1489
g11
sS'JULIE_AND_JULIA_DVS219'
p1490
g11
sS'30_MINUTES_OR_LESS_DVS152'
p1491
g7
sS'WE_BOUGHT_A_ZOO_DVS806'
p1492
g9
sS'EASY_A_DVS154'
p1493
g17
sS'IRON_MAN_2_DVS318'
p1494
g11
sS'THE_ADVENTURES_OF_TINTIN_DVS188'
p1495
g2
sS'WE_BOUGHT_A_ZOO_DVS147'
p1496
g7
sS'PUBLIC_ENEMIES_DVS480'
p1497
g11
sS'PARENTAL_GUIDANCE_DVS426'
p1498
g9
sS'500DAYSOFSUMMER_DVS396'
p1499
g15
sS'500DAYSOFSUMMER_DVS397'
p1500
g15
sS'WE_BOUGHT_A_ZOO_DVS148'
p1501
g7
sS'500DAYSOFSUMMER_DVS395'
p1502
g11
sS'BIG_MOMMAS_LIKE_FATHER_LIKE_SON_DVS149'
p1503
g7
sS'GREEN_ZONE_DVS64'
p1504
g9
sS'HOW_DO_YOU_KNOW_DVS358'
p1505
g51
sS'JULIE_AND_JULIA_DVS450'
p1506
g9
sS'HOW_DO_YOU_KNOW_DVS353'
p1507
g9
sS'THE_GIRL_WITH_THE_DRAGON_TATTOO_DVS139'
p1508
g7
sS'THE_BIG_YEAR_DVS525'
p1509
g11
sS'SPARKLE_2012_DVS480'
p1510
g62
sS'SUPER_8_DVS601'
p1511
g11
sS'PUBLIC_ENEMIES_DVS261'
p1512
g11
sS'THE_GIRL_WITH_THE_DRAGON_TATTOO_DVS84'
p1513
g11
sS'THE_VOW_DVS283'
p1514
g27
sS'THE_GUILT_TRIP_DVS109'
p1515
g9
sS'DEAR_JOHN_DVS338'
p1516
g41
sS'THE_BOUNTY_HUNTER_DVS126'
p1517
g11
sS'SUPER_8_DVS401'
p1518
g11
sS'THE_VOW_DVS268'
p1519
g9
sS'THE_BIG_YEAR_DVS412'
p1520
g27
sS'IN_TIME_DVS249'
p1521
g2
sS'SNOW_FLOWER_FD_DVS1410'
p1522
g11
sS'DEAR_JOHN_DVS448'
p1523
g9
sS'INSIDE_MAN_DVS175'
p1524
g258
sS'BIG_MOMMAS_LIKE_FATHER_LIKE_SON_DVS46'
p1525
g27
sS'THE_DESCENDANTS_DVS383'
p1526
g11
sS'BURLESQUE_DVS677'
p1527
g9
sS'THE_GIRL_WITH_THE_DRAGON_TATTOO_DVS714'
p1528
g27
sS'SALT_DVS546'
p1529
g9
sS'500DAYSOFSUMMER_DVS98'
p1530
g15
sS'500DAYSOFSUMMER_DVS93'
p1531
g9
sS'THE_DESCENDANTS_DVS257'
p1532
g27
sS'MR_POPPERS_PENGUINS_DVS186'
p1533
g11
sS'MR_POPPERS_PENGUINS_DVS187'
p1534
g27
sS'A_GOOD_DAY_TO_DIE_HARD_DVS678'
p1535
g15
sS'MR_POPPERS_PENGUINS_DVS211'
p1536
g11
sS'CHRONICLE_DVS410'
p1537
g11
sS'UGLY_TRUTH_DVS557'
p1538
g7
sS'TOOTH_FAIRY_DVS706'
p1539
g27
sS'SALT_DVS430'
p1540
g51
sS'FRIENDS_WITH_BENEFITS_DVS43'
p1541
g41
sS'SALT_DVS434'
p1542
g11
sS'JUST_GO_WITH_IT_DVS113'
p1543
g11
sS'UGLY_TRUTH_DVS553'
p1544
g41
sS'BURLESQUE_DVS77'
p1545
g27
sS'MORNING_GLORY_DVS467'
p1546
g11
sS'ZOMBIELAND_DVS572'
p1547
g11
sS'HUGO_DVS224'
p1548
g7
sS'HUGO_DVS229'
p1549
g258
sS'TITANIC_2_DVS176'
p1550
g34
sS'HANSEL_GRETEL_WITCH_HUNTERS_DVS596'
p1551
g11
sS'FRIENDS_WITH_BENEFITS_DVS200'
p1552
g11
sS'THE_CALL_DVS203'
p1553
g17
sS'21_JUMP_STREET_DVS437'
p1554
g51
sS'THE_BOUNTY_HUNTER_DVS302'
p1555
g9
sS'MR_POPPERS_PENGUINS_DVS529'
p1556
g2
sS'SANCTUM_DVS113'
p1557
g2
sS'LIFE_OF_PI_DVS569'
p1558
g2
sS'ROBIN_HOOD_DVS511'
p1559
g11
sS'CAPTAIN_AMERICA_DVS282'
p1560
g11
sS'THE_CALL_DVS110'
p1561
g258
sS'CAPTAIN_AMERICA_DVS289'
p1562
g224
sS'THE_GIRL_WITH_THE_DRAGON_TATTOO_DVS1190'
p1563
g11
sS'GHOST_RIDER_SPIRIT_OF_VENGEANCE_DVS427'
p1564
g11
sS'CAPTAIN_AMERICA_DVS440'
p1565
g11
sS'CAPTAIN_AMERICA_DVS443'
p1566
g9
sS'CAPTAIN_AMERICA_DVS444'
p1567
g11
sS'CAPTAIN_AMERICA_DVS446'
p1568
g11
sS'ZOMBIELAND_DVS371'
p1569
g7
sS'DISTRICT_9_DVS272'
p1570
g11
sS'WE_BOUGHT_A_ZOO_DVS816'
p1571
g11
sS'ITS_COMPLICATED_DVS232'
p1572
g27
sS'ROBIN_HOOD_DVS56'
p1573
g258
sS'21_JUMP_STREET_DVS218'
p1574
g2
sS'CAPTAIN_AMERICA_DVS35'
p1575
g2
sS'CAPTAIN_AMERICA_DVS37'
p1576
g2
sS'CAPTAIN_AMERICA_DVS668'
p1577
g11
sS'YOUNG_ADULT_DVS119'
p1578
g17
sS'SANCTUM_DVS265'
p1579
g34
sS'YOUNG_ADULT_DVS111'
p1580
g9
sS'TITANIC_1_DVS261'
p1581
g51
sS'YOUNG_ADULT_DVS117'
p1582
g7
sS'SNOW_FLOWER_FD_DVS235'
p1583
g2
sS'LIFE_OF_PI_DVS700'
p1584
g34
sS'LIFE_OF_PI_DVS364'
p1585
g34
sS'LIFE_OF_PI_DVS811'
p1586
g9
sS'LIFE_OF_PI_DVS360'
p1587
g34
sS'ZOMBIELAND_DVS713'
p1588
g2
sS'SANCTUM_DVS249'
p1589
g34
sS'KARATE_KID_DVS1076'
p1590
g11
sS'CHASING_MAVERICKS_DVS487'
p1591
g41
sS'WHATS_YOUR_NUMBER_DVS462'
p1592
g62
sS'TRUE_GRIT_DVS521'
p1593
g17
sS'GHOST_RIDER_SPIRIT_OF_VENGEANCE_DVS549'
p1594
g11
sS'COLOMBIANA_DVS468'
p1595
g9
sS'LIFE_OF_PI_DVS144'
p1596
g258
sS'KARATE_KID_DVS866'
p1597
g27
sS'JACK_AND_JILL_DVS102'
p1598
g34
sS'A_THOUSAND_WORDS_DVS183'
p1599
g11
sS'HUGO_DVS805'
p1600
g2
sS'FLIGHT_DVS386'
p1601
g258
sS'KATY_PERRY_PART_OF_ME_DVS179'
p1602
g11
sS'WE_BOUGHT_A_ZOO_DVS335'
p1603
g11
sS'BURLESQUE_DVS276'
p1604
g2
sS'TITANIC_1_DVS187'
p1605
g7
sS'TITANIC_1_DVS183'
p1606
g2
sS'KARATE_KID_DVS1002'
p1607
g27
sS'THE_ADVENTURES_OF_TINTIN_DVS420'
p1608
g7
sS'KARATE_KID_DVS1009'
p1609
g27
sS'NANNY_MCPHEE_RETURNS_DVS477'
p1610
g11
sS'NANNY_MCPHEE_RETURNS_DVS473'
p1611
g11
sS'WE_BOUGHT_A_ZOO_DVS532'
p1612
g9
sS'BATTLE_LOS_ANGELES_DVS634'
p1613
g9
sS'BATTLE_LOS_ANGELES_DVS632'
p1614
g1308
sS'CHASING_MAVERICKS_DVS652'
p1615
g34
sS'A_THOUSAND_WORDS_DVS225'
p1616
g17
sS'COLOMBIANA_DVS670'
p1617
g34
sS'BLINDDATING_DVS103'
p1618
g2
sS'HOW_DO_YOU_KNOW_DVS124'
p1619
g27
sS'UGLY_TRUTH_DVS510'
p1620
g7
sS'30_MINUTES_OR_LESS_DVS161'
p1621
g11
sS'RUBY_SPARKS_DVS327'
p1622
g2
sS'SALT_DVS157'
p1623
g11
sS'THIS_MEANS_WAR_DVS503'
p1624
g41
sS'500DAYSOFSUMMER_DVS380'
p1625
g41
sS'WE_BOUGHT_A_ZOO_DVS158'
p1626
g9
sS'KARATE_KID_DVS1399'
p1627
g11
sS'BIG_MOMMAS_LIKE_FATHER_LIKE_SON_DVS154'
p1628
g9
sS'DEAR_JOHN_DVS143'
p1629
g41
sS'PUBLIC_ENEMIES_DVS308'
p1630
g7
sS'JULIE_AND_JULIA_DVS334'
p1631
g9
sS'THE_ADVENTURES_OF_TINTIN_DVS645'
p1632
g2
sS'TRUE_GRIT_DVS421'
p1633
g27
sS'SUPER_8_DVS615'
p1634
g9
sS'MORNING_GLORY_DVS207'
p1635
g11
sS'SPARKLE_2012_DVS496'
p1636
g2
sS'SUPER_8_DVS619'
p1637
g41
sS'SUPER_8_DVS618'
p1638
g41
sS'THE_VOW_DVS294'
p1639
g9
sS'COLOMBIANA_DVS708'
p1640
g11
sS'GROWN_UPS_DVS174'
p1641
g11
sS'FLIGHT_DVS613'
p1642
g51
sS'MORNING_GLORY_DVS175'
p1643
g7
sS'TITANIC_1_DVS169'
p1644
g11
sS'THE_GIRL_WITH_THE_DRAGON_TATTOO_DVS652'
p1645
g9
sS'BIG_MOMMAS_LIKE_FATHER_LIKE_SON_DVS78'
p1646
g9
sS'THE_GIRL_WITH_THE_DRAGON_TATTOO_DVS870'
p1647
g9
sS'DEAR_JOHN_DVS456'
p1648
g11
sS'COLOMBIANA_DVS817'
p1649
g11
sS'KARATE_KID_DVS1530'
p1650
g11
sS'CAPTAIN_AMERICA_DVS635'
p1651
g2
sS'HUGO_DVS223'
p1652
g9
sS'TITANIC_2_DVS616'
p1653
g11
sS'PARENTAL_GUIDANCE_DVS402'
p1654
g9
sS'DINNER_FOR_SCHMUCKS_DVS205'
p1655
g11
sS'MR_POPPERS_PENGUINS_DVS195'
p1656
g17
sS'IDES_OF_MARCH_DVS89'
p1657
g17
sS'THE_BIG_YEAR_DVS269'
p1658
g11
sS'HUGO_DVS780'
p1659
g41
sS'GHOST_RIDER_SPIRIT_OF_VENGEANCE_DVS602'
p1660
g9
sS'MR_POPPERS_PENGUINS_DVS201'
p1661
g27
sS'THE_DESCENDANTS_DVS533'
p1662
g9
sS'THINK_LIKE_A_MAN_DVS439'
p1663
g9
sS'THINK_LIKE_A_MAN_DVS432'
p1664
g9
sS'TITANIC_2_DVS764'
p1665
g11
sS'INSIDE_MAN_DVS387'
p1666
g2
sS'JUST_GO_WITH_IT_DVS108'
p1667
g11
sS'JUST_GO_WITH_IT_DVS104'
p1668
g11
sS'THE_ART_OF_GETTING_BY_DVS414'
p1669
g9
sS'30_MINUTES_OR_LESS_DVS69'
p1670
g34
sS'LARRY_CROWNE_DVS78'
p1671
g7
sS'HUGO_DVS680'
p1672
g2
sS'DISTRICT_9_DVS447'
p1673
g9
sS'SALT_DVS18'
p1674
g17
sS'HUGO_DVS258'
p1675
g11
sS'FRIENDS_WITH_BENEFITS_DVS278'
p1676
g2
sS'THE_CALL_DVS218'
p1677
g11
sS'TOOTH_FAIRY_DVS517'
p1678
g11
sS'TITANIC_2_DVS142'
p1679
g7
sS'WE_BOUGHT_A_ZOO_DVS824'
p1680
g9
sS'THE_CALL_DVS742'
p1681
g27
sS'THE_BOUNTY_HUNTER_DVS462'
p1682
g11
sS'ZOOKEEPER_DVS76'
p1683
g62
sS'IN_TIME_DVS188'
p1684
g11
sS'PARENTAL_GUIDANCE_DVS302'
p1685
g51
sS'ZOOKEEPER_DVS296'
p1686
g27
sS'CAPTAIN_AMERICA_DVS380'
p1687
g11
sS'COLOMBIANA_DVS995'
p1688
g51
sS'SORCERERS_APPRENTICE_DVS460'
p1689
g2
sS'THE_GIRL_WITH_THE_DRAGON_TATTOO_DVS1188'
p1690
g11
sS'30_MINUTES_OR_LESS_DVS266'
p1691
g17
sS'THE_GIRL_WITH_THE_DRAGON_TATTOO_DVS1187'
p1692
g11
sS'ROBIN_HOOD_DVS185'
p1693
g11
sS'THE_GIRL_WITH_THE_DRAGON_TATTOO_DVS1185'
p1694
g11
sS'HOW_DO_YOU_KNOW_DVS52'
p1695
g27
sS'A_GOOD_DAY_TO_DIE_HARD_DVS803'
p1696
g11
sS'PARENTAL_GUIDANCE_DVS239'
p1697
g11
sS'THE_DESCENDANTS_DVS721'
p1698
g17
sS'HOW_DO_YOU_KNOW_DVS55'
p1699
g17
sS'LIFE_OF_PI_DVS950'
p1700
g9
sS'ITS_COMPLICATED_DVS347'
p1701
g11
sS'BRUNO_DVS52'
p1702
g51
sS'KARATE_KID_DVS211'
p1703
g11
sS'KARATE_KID_DVS218'
p1704
g11
sS'IDES_OF_MARCH_DVS365'
p1705
g9
sS'GHOST_RIDER_SPIRIT_OF_VENGEANCE_DVS415'
p1706
g11
sS'COLOMBIANA_DVS386'
p1707
g2
sS'ROBIN_HOOD_DVS365'
p1708
g11
sS'SANCTUM_DVS251'
p1709
g2
sS'SANCTUM_DVS255'
p1710
g2
sS'TITANIC_2_DVS31'
p1711
g11
sS'BATTLE_LOS_ANGELES_DVS384'
p1712
g11
sS'GHOST_RIDER_SPIRIT_OF_VENGEANCE_DVS564'
p1713
g62
sS'THE_BIG_YEAR_DVS293'
p1714
g27
sS'THE_BOUNTY_HUNTER_DVS510'
p1715
g11
sS'THE_BOUNTY_HUNTER_DVS511'
p1716
g2
sS'WHATS_YOUR_NUMBER_DVS679'
p1717
g11
sS'BATTLE_LOS_ANGELES_DVS285'
p1718
g27
sS'PERCY_JACKSON_LIGHTENING_THIEF_DVS154'
p1719
g9
sS'SANCTUM_DVS387'
p1720
g41
sS'SNOW_FLOWER_FD_DVS397'
p1721
g9
sS'CHARLIE_ST_CLOUD_DVS211'
p1722
g11
sS'BURLESQUE_DVS247'
p1723
g11
sS'BURLESQUE_DVS245'
p1724
g17
sS'A_THOUSAND_WORDS_DVS165'
p1725
g15
sS'GHOST_RIDER_SPIRIT_OF_VENGEANCE_DVS495'
p1726
g9
sS'WHATS_YOUR_NUMBER_DVS696'
p1727
g11
sS'CHASING_MAVERICKS_DVS261'
p1728
g7
sS'WHATS_YOUR_NUMBER_DVS453'
p1729
g2
sS'WHATS_YOUR_NUMBER_DVS450'
p1730
g2
sS'BIG_MOMMAS_LIKE_FATHER_LIKE_SON_DVS237'
p1731
g7
sS'CAPTAIN_AMERICA_DVS126'
p1732
g224
sS'CAPTAIN_AMERICA_DVS125'
p1733
g11
sS'FLIGHT_DVS371'
p1734
g2
sS'IN_TIME_DVS860'
p1735
g9
sS'BIG_MOMMAS_LIKE_FATHER_LIKE_SON_DVS303'
p1736
g62
sS'BIG_MOMMAS_LIKE_FATHER_LIKE_SON_DVS307'
p1737
g62
sS'WE_BOUGHT_A_ZOO_DVS301'
p1738
g11
sS'COLOMBIANA_DVS697'
p1739
g11
sS'THE_ROOMMATE_DVS324'
p1740
g9
sS'XMEN_FIRST_CLASS_DVS822'
p1741
g27
sS'PROMETHEUS_DVS1076'
p1742
g2
sS'IDES_OF_MARCH_DVS129'
p1743
g9
sS'ABRAHAM_LINCOLN_VAMPIRE_HUNTER_DVS388'
p1744
g62
sS'UGLY_TRUTH_DVS322'
p1745
g9
sS'WE_BOUGHT_A_ZOO_DVS786'
p1746
g9
sS'CHASING_MAVERICKS_DVS349'
p1747
g34
sS'CHASING_MAVERICKS_DVS347'
p1748
g51
sS'GET_HIM_TO_THE_GREEK_DVS140'
p1749
g17
sS'BIG_MOMMAS_LIKE_FATHER_LIKE_SON_DVS493'
p1750
g41
sS'COLOMBIANA_DVS663'
p1751
g9
sS'UGLY_TRUTH_DVS529'
p1752
g2
sS'BIG_MOMMAS_LIKE_FATHER_LIKE_SON_DVS499'
p1753
g9
sS'A_THOUSAND_WORDS_DVS238'
p1754
g11
sS'THIS_MEANS_WAR_DVS150'
p1755
g51
sS'EASY_A_DVS175'
p1756
g41
sS'EASY_A_DVS174'
p1757
g41
sS'DEATH_AT_A_FUNERAL_DVS285'
p1758
g41
sS'NANNY_MCPHEE_RETURNS_DVS215'
p1759
g11
sS'EASY_A_DVS178'
p1760
g41
sS'KARATE_KID_DVS1386'
p1761
g7
sS'RUBY_SPARKS_DVS245'
p1762
g7
sS'PUBLIC_ENEMIES_DVS466'
p1763
g258
sS'KARATE_KID_DVS1389'
p1764
g11
sS'GHOST_RIDER_SPIRIT_OF_VENGEANCE_DVS62'
p1765
g9
sS'JULIE_AND_JULIA_DVS123'
p1766
g17
sS'PROMETHEUS_DVS838'
p1767
g9
sS'MORNING_GLORY_DVS166'
p1768
g27
sS'THE_CALL_DVS1096'
p1769
g11
sS'THE_ADVENTURES_OF_TINTIN_DVS656'
p1770
g27
sS'THE_GUILT_TRIP_DVS279'
p1771
g2
sS'SPARKLE_2012_DVS314'
p1772
g9
sS'GREEN_ZONE_DVS96'
p1773
g9
sS'SPARKLE_2012_DVS310'
p1774
g41
sS'SALT_DVS217'
p1775
g11
sS'40_YEAR_OLD_VIRGIN_DVS177'
p1776
g27
sS'PUBLIC_ENEMIES_DVS208'
p1777
g11
sS'TITANIC_1_DVS407'
p1778
g258
sS'TITANIC_1_DVS404'
p1779
g62
sS'TITANIC_1_DVS409'
p1780
g258
sS'LIFE_OF_PI_DVS1005'
p1781
g2
sS'LIFE_OF_PI_DVS1007'
p1782
g51
sS'COLOMBIANA_DVS718'
p1783
g9
sS'SNOW_FLOWER_FD_DVS603'
p1784
g11
sS'COLOMBIANA_DVS710'
p1785
g2
sS'JULIE_AND_JULIA_DVS475'
p1786
g9
sS'KARATE_KID_DVS1633'
p1787
g51
sS'LIFE_OF_PI_DVS816'
p1788
g34
sS'MORNING_GLORY_DVS298'
p1789
g9
sS'BIG_MOMMAS_LIKE_FATHER_LIKE_SON_DVS69'
p1790
g1308
sS'LAND_OF_THE_LOST_DVS128'
p1791
g27
sS'GHOST_RIDER_SPIRIT_OF_VENGEANCE_DVS82'
p1792
g11
sS'THE_BIG_YEAR_DVS387'
p1793
g51
sS'GHOST_RIDER_SPIRIT_OF_VENGEANCE_DVS81'
p1794
g11
sS'CHASING_MAVERICKS_DVS46'
p1795
g9
sS'SUPER_8_DVS83'
p1796
g9
sS'DEAR_JOHN_DVS265'
p1797
g9
sS'DEAR_JOHN_DVS593'
p1798
g11
sS'CHASING_MAVERICKS_DVS49'
p1799
g11
sS'TITANIC_2_DVS605'
p1800
g11
sS'DINNER_FOR_SCHMUCKS_DVS212'
p1801
g9
sS'21_JUMP_STREET_DVS473'
p1802
g62
sS'JUST_GO_WITH_IT_DVS131'
p1803
g34
sS'IN_TIME_DVS467'
p1804
g11
sS'GET_HIM_TO_THE_GREEK_DVS17'
p1805
g17
sS'HANSEL_GRETEL_WITCH_HUNTERS_DVS201'
p1806
g2
sS'SPARKLE_2012_DVS171'
p1807
g7
sS'SPARKLE_2012_DVS170'
p1808
g7
sS'INSIDE_MAN_DVS398'
p1809
g9
sS'THE_DESCENDANTS_DVS634'
p1810
g2
sS'COLOMBIANA_DVS1050'
p1811
g27
sS'CHARLIE_ST_CLOUD_DVS96'
p1812
g17
sS'THE_ART_OF_GETTING_BY_DVS131'
p1813
g9
sS'CHRONICLE_DVS531'
p1814
g51
sS'CHARLIE_ST_CLOUD_DVS75'
p1815
g2
sS'MR_POPPERS_PENGUINS_DVS308'
p1816
g11
sS'CHARLIE_ST_CLOUD_DVS185'
p1817
g2
sS'ZOOKEEPER_DVS351'
p1818
g17
sS'PARENTAL_GUIDANCE_DVS229'
p1819
g11
sS'MR_POPPERS_PENGUINS_DVS236'
p1820
g7
sS'IN_TIME_DVS190'
p1821
g7
sS'PUBLIC_ENEMIES_DVS86'
p1822
g2
sS'21_JUMP_STREET_DVS582'
p1823
g11
sS'PUBLIC_ENEMIES_DVS85'
p1824
g11
sS'21_JUMP_STREET_DVS345'
p1825
g11
sS'21_JUMP_STREET_DVS348'
p1826
g7
sS'THE_BOUNTY_HUNTER_DVS73'
p1827
g41
sS'THE_CALL_DVS172'
p1828
g17
sS'THINK_LIKE_A_MAN_DVS369'
p1829
g11
sS'CAPTAIN_AMERICA_DVS265'
p1830
g11
sS'ROBIN_HOOD_DVS195'
p1831
g7
sS'YOUNG_ADULT_DVS229'
p1832
g41
sS'CINDERELLA_MAN_DVS225'
p1833
g11
sS'HANSEL_GRETEL_WITCH_HUNTERS_DVS559'
p1834
g11
sS'SALT_DVS25'
p1835
g41
sS'HANSEL_GRETEL_WITCH_HUNTERS_DVS554'
p1836
g11
sS'ITS_COMPLICATED_DVS219'
p1837
g2
sS'IRON_MAN_2_DVS237'
p1838
g11
sS'SANCTUM_DVS483'
p1839
g9
sS'ITS_COMPLICATED_DVS210'
p1840
g41
sS'KARATE_KID_DVS208'
p1841
g11
sS'IDES_OF_MARCH_DVS373'
p1842
g7
sS'BRUNO_DVS47'
p1843
g11
sS'TRUE_GRIT_DVS308'
p1844
g51
sS'ZOOKEEPER_DVS132'
p1845
g51
sS'HUGO_DVS803'
p1846
g11
sS'THE_BIG_YEAR_DVS69'
p1847
g11
sS'GHOST_RIDER_SPIRIT_OF_VENGEANCE_DVS577'
p1848
g62
sS'PERCY_JACKSON_LIGHTENING_THIEF_DVS148'
p1849
g7
sS'LIFE_OF_PI_DVS831'
p1850
g34
sS'HUGO_DVS676'
p1851
g11
sS'LIFE_OF_PI_DVS835'
p1852
g34
sS'ZOMBIELAND_DVS732'
p1853
g2
sS'CAPTAIN_AMERICA_DVS123'
p1854
g224
sS'WE_BOUGHT_A_ZOO_DVS310'
p1855
g2
sS'WHATS_YOUR_NUMBER_DVS683'
p1856
g7
sS'DISTRICT_9_DVS831'
p1857
g2
sS'ABRAHAM_LINCOLN_VAMPIRE_HUNTER_DVS627'
p1858
g11
sS'FLIGHT_DVS94'
p1859
g2
sS'CAPTAIN_AMERICA_DVS134'
p1860
g51
sS'TITANIC_2_DVS721'
p1861
g11
sS'CAPTAIN_AMERICA_DVS647'
p1862
g7
sS'FLIGHT_DVS363'
p1863
g11
sS'CAPTAIN_AMERICA_DVS644'
p1864
g11
sS'DEAR_JOHN_DVS27'
p1865
g34
sS'PARENTAL_GUIDANCE_DVS29'
p1866
g41
sS'CAPTAIN_AMERICA_DVS138'
p1867
g41
sS'TITANIC_1_DVS85'
p1868
g11
sS'THE_WATCH_DVS225'
p1869
g7
sS'THOR_DVS502'
p1870
g11
sS'IRON_MAN_2_DVS656'
p1871
g11
sS'XMEN_FIRST_CLASS_DVS639'
p1872
g9
sS'TITANIC_1_DVS89'
p1873
g11
sS'THOR_DVS504'
p1874
g11
sS'THE_ROOMMATE_DVS316'
p1875
g9
sS'GREEN_ZONE_DVS177'
p1876
g9
sS'THE_ROOMMATE_DVS312'
p1877
g11
sS'SUPER_8_DVS521'
p1878
g11
sS'SUPER_8_DVS524'
p1879
g11
sS'LIFE_OF_PI_DVS706'
p1880
g2
sS'UGLY_TRUTH_DVS339'
p1881
g9
sS'A_THOUSAND_WORDS_DVS339'
p1882
g62
sS'THE_WATCH_DVS359'
p1883
g11
sS'THE_WATCH_DVS433'
p1884
g17
sS'BIG_MOMMAS_LIKE_FATHER_LIKE_SON_DVS557'
p1885
g41
sS'SANCTUM_DVS261'
p1886
g34
sS'CAPTAIN_AMERICA_DVS664'
p1887
g9
sS'XMEN_FIRST_CLASS_DVS1335'
p1888
g2
sS'THIS_MEANS_WAR_DVS367'
p1889
g17
sS'CAPTAIN_AMERICA_DVS667'
p1890
g11
sS'NANNY_MCPHEE_RETURNS_DVS418'
p1891
g9
sS'TITANIC_1_DVS235'
p1892
g11
sS'TITANIC_1_DVS230'
p1893
g2
sS'A_THOUSAND_WORDS_DVS201'
p1894
g2
sS'SUPER_8_DVS294'
p1895
g11
sS'30_MINUTES_OR_LESS_DVS344'
p1896
g258
sS'30_MINUTES_OR_LESS_DVS340'
p1897
g9
sS'30_MINUTES_OR_LESS_DVS181'
p1898
g17
sS'JUST_GO_WITH_IT_DVS28'
p1899
g17
sS'NANNY_MCPHEE_RETURNS_DVS327'
p1900
g258
sS'UGLY_TRUTH_DVS535'
p1901
g11
sS'HUGO_DVS23'
p1902
g11
sS'UGLY_TRUTH_DVS539'
p1903
g62
sS'JULIE_AND_JULIA_DVS228'
p1904
g41
sS'IRON_MAN_2_DVS325'
p1905
g11
sS'PROMETHEUS_DVS730'
p1906
g11
sS'IRON_MAN_2_DVS434'
p1907
g27
sS'NANNY_MCPHEE_RETURNS_DVS80'
p1908
g11
sS'TITANIC_2_DVS706'
p1909
g9
sS'PUBLIC_ENEMIES_DVS473'
p1910
g11
sS'KNOCKED_UP_DVS151'
p1911
g17
sS'XMEN_FIRST_CLASS_DVS1029'
p1912
g17
sS'KNOCKED_UP_DVS154'
p1913
g9
sS'THOR_DVS29'
p1914
g9
sS'KNOCKED_UP_DVS158'
p1915
g11
s.