(i__main__
VASettings
p0
(dp1
S'video_dir'
p2
S''
p3
sS'cc_dict_path'
p4
S'/Users/zal/CMU/Fall2015/HCMMML/FinalProject/Repository/DataProcessing/all_captions_dict.p'
p5
sS'base_path'
p6
S'/Users/zal/CMU/Fall2015/HCMMML/FinalProject/Dataset/MontrealVideoAnnotationDataset/DVDtranscription/'
p7
sS'output_path'
p8
S'/Users/zal/CMU/Fall2015/HCMMML/FinalProject/Repository/DataProcessing/VideoAnnotation/climb.csv'
p9
sS'video_list_path'
p10
S'/Users/zal/CMU/Fall2015/HCMMML/FinalProject/Repository/DataProcessing/VideoAnnotation/climb.txt'
p11
sS'movie_dir'
p12
g3
sS'action_dict_path'
p13
S'/Users/zal/CMU/Fall2015/HCMMML/FinalProject/Repository/DataProcessing/all_video_action_dict.p'
p14
sb.